Archive member included to satisfy reference by file (symbol)

/home/chen/IDEs/TrueStudio/ARMTools/bin/../lib/gcc/arm-atollic-eabi/6.3.1/../../../../arm-atollic-eabi/lib/armv7e-m/fpu/fpv5-d16/libm.a(lib_a-s_cos.o)
                              Application/User/Foc/controlFoc.o (cos)
/home/chen/IDEs/TrueStudio/ARMTools/bin/../lib/gcc/arm-atollic-eabi/6.3.1/../../../../arm-atollic-eabi/lib/armv7e-m/fpu/fpv5-d16/libm.a(lib_a-s_sin.o)
                              Application/User/Foc/controlFoc.o (sin)
/home/chen/IDEs/TrueStudio/ARMTools/bin/../lib/gcc/arm-atollic-eabi/6.3.1/../../../../arm-atollic-eabi/lib/armv7e-m/fpu/fpv5-d16/libm.a(lib_a-e_rem_pio2.o)
                              /home/chen/IDEs/TrueStudio/ARMTools/bin/../lib/gcc/arm-atollic-eabi/6.3.1/../../../../arm-atollic-eabi/lib/armv7e-m/fpu/fpv5-d16/libm.a(lib_a-s_cos.o) (__ieee754_rem_pio2)
/home/chen/IDEs/TrueStudio/ARMTools/bin/../lib/gcc/arm-atollic-eabi/6.3.1/../../../../arm-atollic-eabi/lib/armv7e-m/fpu/fpv5-d16/libm.a(lib_a-k_cos.o)
                              /home/chen/IDEs/TrueStudio/ARMTools/bin/../lib/gcc/arm-atollic-eabi/6.3.1/../../../../arm-atollic-eabi/lib/armv7e-m/fpu/fpv5-d16/libm.a(lib_a-s_cos.o) (__kernel_cos)
/home/chen/IDEs/TrueStudio/ARMTools/bin/../lib/gcc/arm-atollic-eabi/6.3.1/../../../../arm-atollic-eabi/lib/armv7e-m/fpu/fpv5-d16/libm.a(lib_a-k_rem_pio2.o)
                              /home/chen/IDEs/TrueStudio/ARMTools/bin/../lib/gcc/arm-atollic-eabi/6.3.1/../../../../arm-atollic-eabi/lib/armv7e-m/fpu/fpv5-d16/libm.a(lib_a-e_rem_pio2.o) (__kernel_rem_pio2)
/home/chen/IDEs/TrueStudio/ARMTools/bin/../lib/gcc/arm-atollic-eabi/6.3.1/../../../../arm-atollic-eabi/lib/armv7e-m/fpu/fpv5-d16/libm.a(lib_a-k_sin.o)
                              /home/chen/IDEs/TrueStudio/ARMTools/bin/../lib/gcc/arm-atollic-eabi/6.3.1/../../../../arm-atollic-eabi/lib/armv7e-m/fpu/fpv5-d16/libm.a(lib_a-s_cos.o) (__kernel_sin)
/home/chen/IDEs/TrueStudio/ARMTools/bin/../lib/gcc/arm-atollic-eabi/6.3.1/../../../../arm-atollic-eabi/lib/armv7e-m/fpu/fpv5-d16/libm.a(lib_a-s_fabs.o)
                              /home/chen/IDEs/TrueStudio/ARMTools/bin/../lib/gcc/arm-atollic-eabi/6.3.1/../../../../arm-atollic-eabi/lib/armv7e-m/fpu/fpv5-d16/libm.a(lib_a-e_rem_pio2.o) (fabs)
/home/chen/IDEs/TrueStudio/ARMTools/bin/../lib/gcc/arm-atollic-eabi/6.3.1/../../../../arm-atollic-eabi/lib/armv7e-m/fpu/fpv5-d16/libm.a(lib_a-s_floor.o)
                              /home/chen/IDEs/TrueStudio/ARMTools/bin/../lib/gcc/arm-atollic-eabi/6.3.1/../../../../arm-atollic-eabi/lib/armv7e-m/fpu/fpv5-d16/libm.a(lib_a-k_rem_pio2.o) (floor)
/home/chen/IDEs/TrueStudio/ARMTools/bin/../lib/gcc/arm-atollic-eabi/6.3.1/../../../../arm-atollic-eabi/lib/armv7e-m/fpu/fpv5-d16/libm.a(lib_a-s_scalbn.o)
                              /home/chen/IDEs/TrueStudio/ARMTools/bin/../lib/gcc/arm-atollic-eabi/6.3.1/../../../../arm-atollic-eabi/lib/armv7e-m/fpu/fpv5-d16/libm.a(lib_a-k_rem_pio2.o) (scalbn)
/home/chen/IDEs/TrueStudio/ARMTools/bin/../lib/gcc/arm-atollic-eabi/6.3.1/../../../../arm-atollic-eabi/lib/armv7e-m/fpu/fpv5-d16/libm.a(lib_a-s_copysign.o)
                              /home/chen/IDEs/TrueStudio/ARMTools/bin/../lib/gcc/arm-atollic-eabi/6.3.1/../../../../arm-atollic-eabi/lib/armv7e-m/fpu/fpv5-d16/libm.a(lib_a-s_scalbn.o) (copysign)
/home/chen/IDEs/TrueStudio/ARMTools/bin/../lib/gcc/arm-atollic-eabi/6.3.1/../../../../arm-atollic-eabi/lib/armv7e-m/fpu/fpv5-d16/libc_nano.a(lib_a-init.o)
                              Application/TrueSTUDIO/startup_stm32f765xx.o (__libc_init_array)
/home/chen/IDEs/TrueStudio/ARMTools/bin/../lib/gcc/arm-atollic-eabi/6.3.1/../../../../arm-atollic-eabi/lib/armv7e-m/fpu/fpv5-d16/libc_nano.a(lib_a-memcpy-stub.o)
                              Middlewares/FreeRTOS/queue.o (memcpy)
/home/chen/IDEs/TrueStudio/ARMTools/bin/../lib/gcc/arm-atollic-eabi/6.3.1/../../../../arm-atollic-eabi/lib/armv7e-m/fpu/fpv5-d16/libc_nano.a(lib_a-memset.o)
                              Application/User/Idletasks/idletasks.o (memset)

Allocating common symbols
Common symbol       size              file

conresQueueHandle   0x4               Application/User/freertos.o
buzzertoneTaskHandle
                    0x4               Application/User/freertos.o
hdma_uart4_rx       0x60              Application/User/usart.o
hi2c4               0x4c              Application/User/i2c.o
htim4               0x40              Application/User/stm32f7xx_hal_timebase_TIM.o
huart3              0x70              Application/User/usart.o
hpcd_USB_OTG_HS     0x400             Application/User/usb_otg.o
buzzerQueueHandle   0x4               Application/User/freertos.o
hdfsdm1_filter0     0x54              Application/User/dfsdm.o
enchall_buff        0x5               Application/User/ISRs/isrSensors.o
uwTick              0x4               Drivers/STM32F7xx_HAL_Driver/stm32f7xx_hal.o
xQueueRegistry      0x40              Middlewares/FreeRTOS/queue.o
hdfsdm1_channel3    0x38              Application/User/dfsdm.o
order_buff          0x6               Application/User/ISRs/isrSensors.o
pFlash              0x1c              Drivers/STM32F7xx_HAL_Driver/stm32f7xx_hal_flash.o
rythmQueueHandle    0x4               Application/User/freertos.o
enchallTaskHandle   0x4               Application/User/freertos.o
hdma_usart1_rx      0x60              Application/User/usart.o
hdma_dfsdm1_flt1    0x60              Application/User/dfsdm.o
huart1              0x70              Application/User/usart.o
hdma_dfsdm1_flt0    0x60              Application/User/dfsdm.o
hdfsdm1_filter1     0x54              Application/User/dfsdm.o
buzzerMutexHandle   0x4               Application/User/freertos.o
enchallQueueHandle  0x4               Application/User/freertos.o
htim1               0x40              Application/User/tim.o
hdfsdm1_channel0    0x38              Application/User/dfsdm.o
controlTaskHandle   0x4               Application/User/freertos.o
huart8              0x70              Application/User/usart.o
ledgreenTaskHandle  0x4               Application/User/freertos.o
ledblueTaskHandle   0x4               Application/User/freertos.o
huart4              0x70              Application/User/usart.o
shuntQueueHandle    0x4               Application/User/freertos.o
hspi1               0x64              Application/User/spi.o
htim2               0x40              Application/User/tim.o
iwdgTaskHandle      0x4               Application/User/freertos.o
buzzerrythmTaskHandle
                    0x4               Application/User/freertos.o

Discarded input sections

 .text          0x0000000000000000        0x0 /home/chen/IDEs/TrueStudio/ARMTools/bin/../lib/gcc/arm-atollic-eabi/6.3.1/armv7e-m/fpu/fpv5-d16/crti.o
 .data          0x0000000000000000        0x0 /home/chen/IDEs/TrueStudio/ARMTools/bin/../lib/gcc/arm-atollic-eabi/6.3.1/armv7e-m/fpu/fpv5-d16/crti.o
 .bss           0x0000000000000000        0x0 /home/chen/IDEs/TrueStudio/ARMTools/bin/../lib/gcc/arm-atollic-eabi/6.3.1/armv7e-m/fpu/fpv5-d16/crti.o
 .data          0x0000000000000000        0x4 /home/chen/IDEs/TrueStudio/ARMTools/bin/../lib/gcc/arm-atollic-eabi/6.3.1/armv7e-m/fpu/fpv5-d16/crtbegin.o
 .text          0x0000000000000000       0x14 Application/TrueSTUDIO/startup_stm32f765xx.o
 .data          0x0000000000000000        0x0 Application/TrueSTUDIO/startup_stm32f765xx.o
 .bss           0x0000000000000000        0x0 Application/TrueSTUDIO/startup_stm32f765xx.o
 .text          0x0000000000000000        0x0 Application/User/Foc/controlFoc.o
 .data          0x0000000000000000        0x0 Application/User/Foc/controlFoc.o
 .bss           0x0000000000000000        0x0 Application/User/Foc/controlFoc.o
 .text          0x0000000000000000        0x0 Application/User/ISRs/isrSensors.o
 .data          0x0000000000000000        0x0 Application/User/ISRs/isrSensors.o
 .bss           0x0000000000000000        0x0 Application/User/ISRs/isrSensors.o
 .text          0x0000000000000000        0x0 Application/User/Idletasks/idletasks.o
 .data          0x0000000000000000        0x0 Application/User/Idletasks/idletasks.o
 .bss           0x0000000000000000        0x0 Application/User/Idletasks/idletasks.o
 .text          0x0000000000000000        0x0 Application/User/SYSINIT/sysinitial.o
 .data          0x0000000000000000        0x0 Application/User/SYSINIT/sysinitial.o
 .bss           0x0000000000000000        0x0 Application/User/SYSINIT/sysinitial.o
 .text          0x0000000000000000        0x0 Application/User/debug/datatraceDebug.o
 .data          0x0000000000000000        0x0 Application/User/debug/datatraceDebug.o
 .bss           0x0000000000000000        0x0 Application/User/debug/datatraceDebug.o
 .text          0x0000000000000000        0x0 Application/User/dfsdm.o
 .data          0x0000000000000000        0x0 Application/User/dfsdm.o
 .bss           0x0000000000000000        0x0 Application/User/dfsdm.o
 .text.HAL_DFSDM_FilterMspDeInit
                0x0000000000000000       0x4c Application/User/dfsdm.o
 .text.HAL_DFSDM_ChannelMspDeInit
                0x0000000000000000       0x3c Application/User/dfsdm.o
 .text          0x0000000000000000        0x0 Application/User/dma.o
 .data          0x0000000000000000        0x0 Application/User/dma.o
 .bss           0x0000000000000000        0x0 Application/User/dma.o
 .text          0x0000000000000000        0x0 Application/User/freertos.o
 .data          0x0000000000000000        0x0 Application/User/freertos.o
 .bss           0x0000000000000000        0x0 Application/User/freertos.o
 .text.StartbuzzerrythmTask
                0x0000000000000000        0xc Application/User/freertos.o
 .text.StartbuzzertoneTask
                0x0000000000000000        0xc Application/User/freertos.o
 .text.StartenchallTask
                0x0000000000000000        0xc Application/User/freertos.o
 .text.StartcontrolTask
                0x0000000000000000        0xc Application/User/freertos.o
 .text.StartledblueTask
                0x0000000000000000        0xc Application/User/freertos.o
 .text.StartledgreenTask
                0x0000000000000000        0xc Application/User/freertos.o
 .text.StartiwdgTask
                0x0000000000000000        0xc Application/User/freertos.o
 .text          0x0000000000000000        0x0 Application/User/gpio.o
 .data          0x0000000000000000        0x0 Application/User/gpio.o
 .bss           0x0000000000000000        0x0 Application/User/gpio.o
 .text          0x0000000000000000        0x0 Application/User/i2c.o
 .data          0x0000000000000000        0x0 Application/User/i2c.o
 .bss           0x0000000000000000        0x0 Application/User/i2c.o
 .text.HAL_I2C_MspDeInit
                0x0000000000000000       0x2c Application/User/i2c.o
 .text          0x0000000000000000        0x0 Application/User/main.o
 .data          0x0000000000000000        0x0 Application/User/main.o
 .bss           0x0000000000000000        0x0 Application/User/main.o
 .text          0x0000000000000000        0x0 Application/User/spi.o
 .data          0x0000000000000000        0x0 Application/User/spi.o
 .bss           0x0000000000000000        0x0 Application/User/spi.o
 .text.HAL_SPI_MspDeInit
                0x0000000000000000       0x3c Application/User/spi.o
 .text          0x0000000000000000        0x0 Application/User/stm32f7xx_hal_msp.o
 .data          0x0000000000000000        0x0 Application/User/stm32f7xx_hal_msp.o
 .bss           0x0000000000000000        0x0 Application/User/stm32f7xx_hal_msp.o
 .text          0x0000000000000000        0x0 Application/User/stm32f7xx_hal_timebase_TIM.o
 .data          0x0000000000000000        0x0 Application/User/stm32f7xx_hal_timebase_TIM.o
 .bss           0x0000000000000000        0x0 Application/User/stm32f7xx_hal_timebase_TIM.o
 .text.HAL_SuspendTick
                0x0000000000000000       0x14 Application/User/stm32f7xx_hal_timebase_TIM.o
 .text.HAL_ResumeTick
                0x0000000000000000       0x14 Application/User/stm32f7xx_hal_timebase_TIM.o
 .bss.uwIncrementState
                0x0000000000000000        0x4 Application/User/stm32f7xx_hal_timebase_TIM.o
 .text          0x0000000000000000        0x0 Application/User/stm32f7xx_it.o
 .data          0x0000000000000000        0x0 Application/User/stm32f7xx_it.o
 .bss           0x0000000000000000        0x0 Application/User/stm32f7xx_it.o
 .text          0x0000000000000000        0x0 Application/User/tim.o
 .data          0x0000000000000000        0x0 Application/User/tim.o
 .bss           0x0000000000000000        0x0 Application/User/tim.o
 .text.HAL_TIM_MspPostInit
                0x0000000000000000       0x74 Application/User/tim.o
 .text.HAL_TIM_Base_MspDeInit
                0x0000000000000000       0x34 Application/User/tim.o
 .text          0x0000000000000000        0x0 Application/User/usart.o
 .data          0x0000000000000000        0x0 Application/User/usart.o
 .bss           0x0000000000000000        0x0 Application/User/usart.o
 .text.HAL_UART_MspDeInit
                0x0000000000000000       0xac Application/User/usart.o
 .text          0x0000000000000000        0x0 Application/User/usb_otg.o
 .data          0x0000000000000000        0x0 Application/User/usb_otg.o
 .bss           0x0000000000000000        0x0 Application/User/usb_otg.o
 .text.HAL_PCD_MspDeInit
                0x0000000000000000       0x50 Application/User/usb_otg.o
 .text          0x0000000000000000        0x0 Drivers/CMSIS/system_stm32f7xx.o
 .data          0x0000000000000000        0x0 Drivers/CMSIS/system_stm32f7xx.o
 .bss           0x0000000000000000        0x0 Drivers/CMSIS/system_stm32f7xx.o
 .text.SystemCoreClockUpdate
                0x0000000000000000       0x70 Drivers/CMSIS/system_stm32f7xx.o
 .text          0x0000000000000000        0x0 Drivers/STM32F7xx_HAL_Driver/stm32f7xx_hal.o
 .data          0x0000000000000000        0x0 Drivers/STM32F7xx_HAL_Driver/stm32f7xx_hal.o
 .bss           0x0000000000000000        0x0 Drivers/STM32F7xx_HAL_Driver/stm32f7xx_hal.o
 .text.HAL_MspInit
                0x0000000000000000        0x4 Drivers/STM32F7xx_HAL_Driver/stm32f7xx_hal.o
 .text.HAL_MspDeInit
                0x0000000000000000        0x4 Drivers/STM32F7xx_HAL_Driver/stm32f7xx_hal.o
 .text.HAL_DeInit
                0x0000000000000000       0x2c Drivers/STM32F7xx_HAL_Driver/stm32f7xx_hal.o
 .text.HAL_InitTick
                0x0000000000000000       0x2c Drivers/STM32F7xx_HAL_Driver/stm32f7xx_hal.o
 .text.HAL_SuspendTick
                0x0000000000000000       0x10 Drivers/STM32F7xx_HAL_Driver/stm32f7xx_hal.o
 .text.HAL_ResumeTick
                0x0000000000000000       0x10 Drivers/STM32F7xx_HAL_Driver/stm32f7xx_hal.o
 .text.HAL_GetHalVersion
                0x0000000000000000        0x8 Drivers/STM32F7xx_HAL_Driver/stm32f7xx_hal.o
 .text.HAL_GetREVID
                0x0000000000000000        0xc Drivers/STM32F7xx_HAL_Driver/stm32f7xx_hal.o
 .text.HAL_GetDEVID
                0x0000000000000000       0x10 Drivers/STM32F7xx_HAL_Driver/stm32f7xx_hal.o
 .text.HAL_GetUIDw0
                0x0000000000000000        0xc Drivers/STM32F7xx_HAL_Driver/stm32f7xx_hal.o
 .text.HAL_GetUIDw1
                0x0000000000000000        0xc Drivers/STM32F7xx_HAL_Driver/stm32f7xx_hal.o
 .text.HAL_GetUIDw2
                0x0000000000000000        0xc Drivers/STM32F7xx_HAL_Driver/stm32f7xx_hal.o
 .text.HAL_DBGMCU_EnableDBGSleepMode
                0x0000000000000000       0x10 Drivers/STM32F7xx_HAL_Driver/stm32f7xx_hal.o
 .text.HAL_DBGMCU_DisableDBGSleepMode
                0x0000000000000000       0x10 Drivers/STM32F7xx_HAL_Driver/stm32f7xx_hal.o
 .text.HAL_DBGMCU_EnableDBGStopMode
                0x0000000000000000       0x10 Drivers/STM32F7xx_HAL_Driver/stm32f7xx_hal.o
 .text.HAL_DBGMCU_DisableDBGStopMode
                0x0000000000000000       0x10 Drivers/STM32F7xx_HAL_Driver/stm32f7xx_hal.o
 .text.HAL_DBGMCU_EnableDBGStandbyMode
                0x0000000000000000       0x10 Drivers/STM32F7xx_HAL_Driver/stm32f7xx_hal.o
 .text.HAL_DBGMCU_DisableDBGStandbyMode
                0x0000000000000000       0x10 Drivers/STM32F7xx_HAL_Driver/stm32f7xx_hal.o
 .text.HAL_EnableCompensationCell
                0x0000000000000000       0x10 Drivers/STM32F7xx_HAL_Driver/stm32f7xx_hal.o
 .text.HAL_DisableCompensationCell
                0x0000000000000000       0x10 Drivers/STM32F7xx_HAL_Driver/stm32f7xx_hal.o
 .text.HAL_EnableFMCMemorySwapping
                0x0000000000000000       0x10 Drivers/STM32F7xx_HAL_Driver/stm32f7xx_hal.o
 .text.HAL_DisableFMCMemorySwapping
                0x0000000000000000       0x10 Drivers/STM32F7xx_HAL_Driver/stm32f7xx_hal.o
 .text.HAL_EnableMemorySwappingBank
                0x0000000000000000       0x10 Drivers/STM32F7xx_HAL_Driver/stm32f7xx_hal.o
 .text.HAL_DisableMemorySwappingBank
                0x0000000000000000       0x10 Drivers/STM32F7xx_HAL_Driver/stm32f7xx_hal.o
 .text          0x0000000000000000        0x0 Drivers/STM32F7xx_HAL_Driver/stm32f7xx_hal_cortex.o
 .data          0x0000000000000000        0x0 Drivers/STM32F7xx_HAL_Driver/stm32f7xx_hal_cortex.o
 .bss           0x0000000000000000        0x0 Drivers/STM32F7xx_HAL_Driver/stm32f7xx_hal_cortex.o
 .text.HAL_NVIC_DisableIRQ
                0x0000000000000000       0x1c Drivers/STM32F7xx_HAL_Driver/stm32f7xx_hal_cortex.o
 .text.HAL_NVIC_SystemReset
                0x0000000000000000       0x24 Drivers/STM32F7xx_HAL_Driver/stm32f7xx_hal_cortex.o
 .text.HAL_MPU_Disable
                0x0000000000000000       0x20 Drivers/STM32F7xx_HAL_Driver/stm32f7xx_hal_cortex.o
 .text.HAL_MPU_Enable
                0x0000000000000000       0x24 Drivers/STM32F7xx_HAL_Driver/stm32f7xx_hal_cortex.o
 .text.HAL_MPU_ConfigRegion
                0x0000000000000000       0x54 Drivers/STM32F7xx_HAL_Driver/stm32f7xx_hal_cortex.o
 .text.HAL_NVIC_GetPriorityGrouping
                0x0000000000000000       0x10 Drivers/STM32F7xx_HAL_Driver/stm32f7xx_hal_cortex.o
 .text.HAL_NVIC_GetPriority
                0x0000000000000000       0x58 Drivers/STM32F7xx_HAL_Driver/stm32f7xx_hal_cortex.o
 .text.HAL_NVIC_SetPendingIRQ
                0x0000000000000000       0x1c Drivers/STM32F7xx_HAL_Driver/stm32f7xx_hal_cortex.o
 .text.HAL_NVIC_GetPendingIRQ
                0x0000000000000000       0x1c Drivers/STM32F7xx_HAL_Driver/stm32f7xx_hal_cortex.o
 .text.HAL_NVIC_ClearPendingIRQ
                0x0000000000000000       0x1c Drivers/STM32F7xx_HAL_Driver/stm32f7xx_hal_cortex.o
 .text.HAL_NVIC_GetActive
                0x0000000000000000       0x1c Drivers/STM32F7xx_HAL_Driver/stm32f7xx_hal_cortex.o
 .text.HAL_SYSTICK_Callback
                0x0000000000000000        0x4 Drivers/STM32F7xx_HAL_Driver/stm32f7xx_hal_cortex.o
 .text.HAL_SYSTICK_IRQHandler
                0x0000000000000000        0x8 Drivers/STM32F7xx_HAL_Driver/stm32f7xx_hal_cortex.o
 .text          0x0000000000000000        0x0 Drivers/STM32F7xx_HAL_Driver/stm32f7xx_hal_dfsdm.o
 .data          0x0000000000000000        0x0 Drivers/STM32F7xx_HAL_Driver/stm32f7xx_hal_dfsdm.o
 .bss           0x0000000000000000        0x0 Drivers/STM32F7xx_HAL_Driver/stm32f7xx_hal_dfsdm.o
 .text.HAL_DFSDM_ChannelMspInit
                0x0000000000000000        0x4 Drivers/STM32F7xx_HAL_Driver/stm32f7xx_hal_dfsdm.o
 .text.HAL_DFSDM_ChannelMspDeInit
                0x0000000000000000        0x4 Drivers/STM32F7xx_HAL_Driver/stm32f7xx_hal_dfsdm.o
 .text.HAL_DFSDM_ChannelDeInit
                0x0000000000000000      0x108 Drivers/STM32F7xx_HAL_Driver/stm32f7xx_hal_dfsdm.o
 .text.HAL_DFSDM_ChannelCkabStart
                0x0000000000000000       0xc8 Drivers/STM32F7xx_HAL_Driver/stm32f7xx_hal_dfsdm.o
 .text.HAL_DFSDM_ChannelPollForCkab
                0x0000000000000000       0xb8 Drivers/STM32F7xx_HAL_Driver/stm32f7xx_hal_dfsdm.o
 .text.HAL_DFSDM_ChannelCkabStop
                0x0000000000000000       0x8c Drivers/STM32F7xx_HAL_Driver/stm32f7xx_hal_dfsdm.o
 .text.HAL_DFSDM_ChannelCkabStart_IT
                0x0000000000000000       0xd4 Drivers/STM32F7xx_HAL_Driver/stm32f7xx_hal_dfsdm.o
 .text.HAL_DFSDM_ChannelCkabCallback
                0x0000000000000000        0x4 Drivers/STM32F7xx_HAL_Driver/stm32f7xx_hal_dfsdm.o
 .text.HAL_DFSDM_ChannelCkabStop_IT
                0x0000000000000000       0x94 Drivers/STM32F7xx_HAL_Driver/stm32f7xx_hal_dfsdm.o
 .text.HAL_DFSDM_ChannelScdStart
                0x0000000000000000       0x38 Drivers/STM32F7xx_HAL_Driver/stm32f7xx_hal_dfsdm.o
 .text.HAL_DFSDM_ChannelPollForScd
                0x0000000000000000       0xac Drivers/STM32F7xx_HAL_Driver/stm32f7xx_hal_dfsdm.o
 .text.HAL_DFSDM_ChannelScdStop
                0x0000000000000000       0x8c Drivers/STM32F7xx_HAL_Driver/stm32f7xx_hal_dfsdm.o
 .text.HAL_DFSDM_ChannelScdStart_IT
                0x0000000000000000       0x44 Drivers/STM32F7xx_HAL_Driver/stm32f7xx_hal_dfsdm.o
 .text.HAL_DFSDM_ChannelScdCallback
                0x0000000000000000        0x4 Drivers/STM32F7xx_HAL_Driver/stm32f7xx_hal_dfsdm.o
 .text.HAL_DFSDM_ChannelScdStop_IT
                0x0000000000000000       0x94 Drivers/STM32F7xx_HAL_Driver/stm32f7xx_hal_dfsdm.o
 .text.HAL_DFSDM_ChannelGetAwdValue
                0x0000000000000000        0x8 Drivers/STM32F7xx_HAL_Driver/stm32f7xx_hal_dfsdm.o
 .text.HAL_DFSDM_ChannelModifyOffset
                0x0000000000000000       0x20 Drivers/STM32F7xx_HAL_Driver/stm32f7xx_hal_dfsdm.o
 .text.HAL_DFSDM_ChannelGetState
                0x0000000000000000        0x8 Drivers/STM32F7xx_HAL_Driver/stm32f7xx_hal_dfsdm.o
 .text.HAL_DFSDM_FilterMspInit
                0x0000000000000000        0x4 Drivers/STM32F7xx_HAL_Driver/stm32f7xx_hal_dfsdm.o
 .text.HAL_DFSDM_FilterMspDeInit
                0x0000000000000000        0x4 Drivers/STM32F7xx_HAL_Driver/stm32f7xx_hal_dfsdm.o
 .text.HAL_DFSDM_FilterDeInit
                0x0000000000000000       0x20 Drivers/STM32F7xx_HAL_Driver/stm32f7xx_hal_dfsdm.o
 .text.HAL_DFSDM_FilterConfigInjChannel
                0x0000000000000000       0x40 Drivers/STM32F7xx_HAL_Driver/stm32f7xx_hal_dfsdm.o
 .text.HAL_DFSDM_FilterRegularStop
                0x0000000000000000       0x80 Drivers/STM32F7xx_HAL_Driver/stm32f7xx_hal_dfsdm.o
 .text.HAL_DFSDM_FilterRegularStart_IT
                0x0000000000000000       0x84 Drivers/STM32F7xx_HAL_Driver/stm32f7xx_hal_dfsdm.o
 .text.HAL_DFSDM_FilterRegularStop_IT
                0x0000000000000000       0x88 Drivers/STM32F7xx_HAL_Driver/stm32f7xx_hal_dfsdm.o
 .text.HAL_DFSDM_FilterRegularStart_DMA
                0x0000000000000000       0xf8 Drivers/STM32F7xx_HAL_Driver/stm32f7xx_hal_dfsdm.o
 .text.HAL_DFSDM_FilterRegularMsbStart_DMA
                0x0000000000000000       0xf8 Drivers/STM32F7xx_HAL_Driver/stm32f7xx_hal_dfsdm.o
 .text.HAL_DFSDM_FilterRegularStop_DMA
                0x0000000000000000       0x7c Drivers/STM32F7xx_HAL_Driver/stm32f7xx_hal_dfsdm.o
 .text.HAL_DFSDM_FilterInjectedStart
                0x0000000000000000       0x78 Drivers/STM32F7xx_HAL_Driver/stm32f7xx_hal_dfsdm.o
 .text.HAL_DFSDM_FilterInjectedStop
                0x0000000000000000       0x88 Drivers/STM32F7xx_HAL_Driver/stm32f7xx_hal_dfsdm.o
 .text.HAL_DFSDM_FilterInjectedStart_IT
                0x0000000000000000       0x74 Drivers/STM32F7xx_HAL_Driver/stm32f7xx_hal_dfsdm.o
 .text.HAL_DFSDM_FilterInjectedStop_IT
                0x0000000000000000       0x90 Drivers/STM32F7xx_HAL_Driver/stm32f7xx_hal_dfsdm.o
 .text.HAL_DFSDM_FilterInjectedStart_DMA
                0x0000000000000000      0x108 Drivers/STM32F7xx_HAL_Driver/stm32f7xx_hal_dfsdm.o
 .text.HAL_DFSDM_FilterInjectedMsbStart_DMA
                0x0000000000000000      0x108 Drivers/STM32F7xx_HAL_Driver/stm32f7xx_hal_dfsdm.o
 .text.HAL_DFSDM_FilterInjectedStop_DMA
                0x0000000000000000       0x98 Drivers/STM32F7xx_HAL_Driver/stm32f7xx_hal_dfsdm.o
 .text.HAL_DFSDM_FilterGetInjectedValue
                0x0000000000000000       0x10 Drivers/STM32F7xx_HAL_Driver/stm32f7xx_hal_dfsdm.o
 .text.HAL_DFSDM_FilterAwdStart_IT
                0x0000000000000000       0x70 Drivers/STM32F7xx_HAL_Driver/stm32f7xx_hal_dfsdm.o
 .text.HAL_DFSDM_FilterAwdStop_IT
                0x0000000000000000       0x48 Drivers/STM32F7xx_HAL_Driver/stm32f7xx_hal_dfsdm.o
 .text.HAL_DFSDM_FilterExdStart
                0x0000000000000000       0x34 Drivers/STM32F7xx_HAL_Driver/stm32f7xx_hal_dfsdm.o
 .text.HAL_DFSDM_FilterExdStop
                0x0000000000000000       0x30 Drivers/STM32F7xx_HAL_Driver/stm32f7xx_hal_dfsdm.o
 .text.HAL_DFSDM_FilterGetExdMaxValue
                0x0000000000000000       0x10 Drivers/STM32F7xx_HAL_Driver/stm32f7xx_hal_dfsdm.o
 .text.HAL_DFSDM_FilterGetExdMinValue
                0x0000000000000000       0x10 Drivers/STM32F7xx_HAL_Driver/stm32f7xx_hal_dfsdm.o
 .text.HAL_DFSDM_FilterGetConvTimeValue
                0x0000000000000000        0x8 Drivers/STM32F7xx_HAL_Driver/stm32f7xx_hal_dfsdm.o
 .text.HAL_DFSDM_FilterRegConvCpltCallback
                0x0000000000000000        0x4 Drivers/STM32F7xx_HAL_Driver/stm32f7xx_hal_dfsdm.o
 .text.DFSDM_DMARegularConvCplt
                0x0000000000000000        0xc Drivers/STM32F7xx_HAL_Driver/stm32f7xx_hal_dfsdm.o
 .text.HAL_DFSDM_FilterRegConvHalfCpltCallback
                0x0000000000000000        0x4 Drivers/STM32F7xx_HAL_Driver/stm32f7xx_hal_dfsdm.o
 .text.DFSDM_DMARegularHalfConvCplt
                0x0000000000000000        0xc Drivers/STM32F7xx_HAL_Driver/stm32f7xx_hal_dfsdm.o
 .text.HAL_DFSDM_FilterInjConvCpltCallback
                0x0000000000000000        0x4 Drivers/STM32F7xx_HAL_Driver/stm32f7xx_hal_dfsdm.o
 .text.DFSDM_DMAInjectedConvCplt
                0x0000000000000000        0xc Drivers/STM32F7xx_HAL_Driver/stm32f7xx_hal_dfsdm.o
 .text.HAL_DFSDM_FilterInjConvHalfCpltCallback
                0x0000000000000000        0x4 Drivers/STM32F7xx_HAL_Driver/stm32f7xx_hal_dfsdm.o
 .text.DFSDM_DMAInjectedHalfConvCplt
                0x0000000000000000        0xc Drivers/STM32F7xx_HAL_Driver/stm32f7xx_hal_dfsdm.o
 .text.HAL_DFSDM_FilterAwdCallback
                0x0000000000000000        0x4 Drivers/STM32F7xx_HAL_Driver/stm32f7xx_hal_dfsdm.o
 .text.DFSDM_DMAError
                0x0000000000000000       0x10 Drivers/STM32F7xx_HAL_Driver/stm32f7xx_hal_dfsdm.o
 .text.HAL_DFSDM_FilterPollForInjConversion
                0x0000000000000000       0x88 Drivers/STM32F7xx_HAL_Driver/stm32f7xx_hal_dfsdm.o
 .text.HAL_DFSDM_IRQHandler
                0x0000000000000000      0x290 Drivers/STM32F7xx_HAL_Driver/stm32f7xx_hal_dfsdm.o
 .text.HAL_DFSDM_FilterGetState
                0x0000000000000000        0x8 Drivers/STM32F7xx_HAL_Driver/stm32f7xx_hal_dfsdm.o
 .text.HAL_DFSDM_FilterGetError
                0x0000000000000000        0x4 Drivers/STM32F7xx_HAL_Driver/stm32f7xx_hal_dfsdm.o
 .text          0x0000000000000000        0x0 Drivers/STM32F7xx_HAL_Driver/stm32f7xx_hal_dma.o
 .data          0x0000000000000000        0x0 Drivers/STM32F7xx_HAL_Driver/stm32f7xx_hal_dma.o
 .bss           0x0000000000000000        0x0 Drivers/STM32F7xx_HAL_Driver/stm32f7xx_hal_dma.o
 .text.HAL_DMA_DeInit
                0x0000000000000000       0x78 Drivers/STM32F7xx_HAL_Driver/stm32f7xx_hal_dma.o
 .text.HAL_DMA_Start
                0x0000000000000000       0x60 Drivers/STM32F7xx_HAL_Driver/stm32f7xx_hal_dma.o
 .text.HAL_DMA_Abort
                0x0000000000000000       0x90 Drivers/STM32F7xx_HAL_Driver/stm32f7xx_hal_dma.o
 .text.HAL_DMA_Abort_IT
                0x0000000000000000       0x28 Drivers/STM32F7xx_HAL_Driver/stm32f7xx_hal_dma.o
 .text.HAL_DMA_PollForTransfer
                0x0000000000000000      0x224 Drivers/STM32F7xx_HAL_Driver/stm32f7xx_hal_dma.o
 .text.HAL_DMA_RegisterCallback
                0x0000000000000000       0x60 Drivers/STM32F7xx_HAL_Driver/stm32f7xx_hal_dma.o
 .text.HAL_DMA_UnRegisterCallback
                0x0000000000000000       0x70 Drivers/STM32F7xx_HAL_Driver/stm32f7xx_hal_dma.o
 .text.HAL_DMA_GetState
                0x0000000000000000        0x8 Drivers/STM32F7xx_HAL_Driver/stm32f7xx_hal_dma.o
 .text.HAL_DMA_GetError
                0x0000000000000000        0x4 Drivers/STM32F7xx_HAL_Driver/stm32f7xx_hal_dma.o
 .text          0x0000000000000000        0x0 Drivers/STM32F7xx_HAL_Driver/stm32f7xx_hal_dma_ex.o
 .data          0x0000000000000000        0x0 Drivers/STM32F7xx_HAL_Driver/stm32f7xx_hal_dma_ex.o
 .bss           0x0000000000000000        0x0 Drivers/STM32F7xx_HAL_Driver/stm32f7xx_hal_dma_ex.o
 .text.HAL_DMAEx_MultiBufferStart
                0x0000000000000000       0x64 Drivers/STM32F7xx_HAL_Driver/stm32f7xx_hal_dma_ex.o
 .text.HAL_DMAEx_MultiBufferStart_IT
                0x0000000000000000      0x3d8 Drivers/STM32F7xx_HAL_Driver/stm32f7xx_hal_dma_ex.o
 .text.HAL_DMAEx_ChangeMemory
                0x0000000000000000       0x10 Drivers/STM32F7xx_HAL_Driver/stm32f7xx_hal_dma_ex.o
 .debug_info    0x0000000000000000      0xdec Drivers/STM32F7xx_HAL_Driver/stm32f7xx_hal_dma_ex.o
 .debug_abbrev  0x0000000000000000      0x21e Drivers/STM32F7xx_HAL_Driver/stm32f7xx_hal_dma_ex.o
 .debug_loc     0x0000000000000000      0x827 Drivers/STM32F7xx_HAL_Driver/stm32f7xx_hal_dma_ex.o
 .debug_aranges
                0x0000000000000000       0x30 Drivers/STM32F7xx_HAL_Driver/stm32f7xx_hal_dma_ex.o
 .debug_ranges  0x0000000000000000       0x60 Drivers/STM32F7xx_HAL_Driver/stm32f7xx_hal_dma_ex.o
 .debug_line    0x0000000000000000      0x538 Drivers/STM32F7xx_HAL_Driver/stm32f7xx_hal_dma_ex.o
 .debug_str     0x0000000000000000      0x9fa Drivers/STM32F7xx_HAL_Driver/stm32f7xx_hal_dma_ex.o
 .comment       0x0000000000000000       0x7d Drivers/STM32F7xx_HAL_Driver/stm32f7xx_hal_dma_ex.o
 .debug_frame   0x0000000000000000       0x88 Drivers/STM32F7xx_HAL_Driver/stm32f7xx_hal_dma_ex.o
 .ARM.attributes
                0x0000000000000000       0x33 Drivers/STM32F7xx_HAL_Driver/stm32f7xx_hal_dma_ex.o
 .text          0x0000000000000000        0x0 Drivers/STM32F7xx_HAL_Driver/stm32f7xx_hal_flash.o
 .data          0x0000000000000000        0x0 Drivers/STM32F7xx_HAL_Driver/stm32f7xx_hal_flash.o
 .bss           0x0000000000000000        0x0 Drivers/STM32F7xx_HAL_Driver/stm32f7xx_hal_flash.o
 .text.HAL_FLASH_Program
                0x0000000000000000      0x204 Drivers/STM32F7xx_HAL_Driver/stm32f7xx_hal_flash.o
 .text.HAL_FLASH_Program_IT
                0x0000000000000000       0xe0 Drivers/STM32F7xx_HAL_Driver/stm32f7xx_hal_flash.o
 .text.HAL_FLASH_EndOfOperationCallback
                0x0000000000000000        0x4 Drivers/STM32F7xx_HAL_Driver/stm32f7xx_hal_flash.o
 .text.HAL_FLASH_OperationErrorCallback
                0x0000000000000000        0x4 Drivers/STM32F7xx_HAL_Driver/stm32f7xx_hal_flash.o
 .text.HAL_FLASH_IRQHandler
                0x0000000000000000      0x150 Drivers/STM32F7xx_HAL_Driver/stm32f7xx_hal_flash.o
 .text.HAL_FLASH_Unlock
                0x0000000000000000       0x24 Drivers/STM32F7xx_HAL_Driver/stm32f7xx_hal_flash.o
 .text.HAL_FLASH_Lock
                0x0000000000000000       0x14 Drivers/STM32F7xx_HAL_Driver/stm32f7xx_hal_flash.o
 .text.HAL_FLASH_OB_Unlock
                0x0000000000000000       0x24 Drivers/STM32F7xx_HAL_Driver/stm32f7xx_hal_flash.o
 .text.HAL_FLASH_OB_Lock
                0x0000000000000000       0x14 Drivers/STM32F7xx_HAL_Driver/stm32f7xx_hal_flash.o
 .text.HAL_FLASH_OB_Launch
                0x0000000000000000       0xac Drivers/STM32F7xx_HAL_Driver/stm32f7xx_hal_flash.o
 .text.HAL_FLASH_GetError
                0x0000000000000000        0xc Drivers/STM32F7xx_HAL_Driver/stm32f7xx_hal_flash.o
 .text.FLASH_WaitForLastOperation
                0x0000000000000000       0xb0 Drivers/STM32F7xx_HAL_Driver/stm32f7xx_hal_flash.o
 .debug_info    0x0000000000000000     0x10c8 Drivers/STM32F7xx_HAL_Driver/stm32f7xx_hal_flash.o
 .debug_abbrev  0x0000000000000000      0x3dd Drivers/STM32F7xx_HAL_Driver/stm32f7xx_hal_flash.o
 .debug_loc     0x0000000000000000      0x4f1 Drivers/STM32F7xx_HAL_Driver/stm32f7xx_hal_flash.o
 .debug_aranges
                0x0000000000000000       0x70 Drivers/STM32F7xx_HAL_Driver/stm32f7xx_hal_flash.o
 .debug_ranges  0x0000000000000000      0x1c0 Drivers/STM32F7xx_HAL_Driver/stm32f7xx_hal_flash.o
 .debug_line    0x0000000000000000      0x600 Drivers/STM32F7xx_HAL_Driver/stm32f7xx_hal_flash.o
 .debug_str     0x0000000000000000      0x9cc Drivers/STM32F7xx_HAL_Driver/stm32f7xx_hal_flash.o
 .comment       0x0000000000000000       0x7d Drivers/STM32F7xx_HAL_Driver/stm32f7xx_hal_flash.o
 .debug_frame   0x0000000000000000      0x124 Drivers/STM32F7xx_HAL_Driver/stm32f7xx_hal_flash.o
 .ARM.attributes
                0x0000000000000000       0x33 Drivers/STM32F7xx_HAL_Driver/stm32f7xx_hal_flash.o
 COMMON         0x0000000000000000       0x1c Drivers/STM32F7xx_HAL_Driver/stm32f7xx_hal_flash.o
 .text          0x0000000000000000        0x0 Drivers/STM32F7xx_HAL_Driver/stm32f7xx_hal_flash_ex.o
 .data          0x0000000000000000        0x0 Drivers/STM32F7xx_HAL_Driver/stm32f7xx_hal_flash_ex.o
 .bss           0x0000000000000000        0x0 Drivers/STM32F7xx_HAL_Driver/stm32f7xx_hal_flash_ex.o
 .text.HAL_FLASHEx_Erase
                0x0000000000000000      0x13c Drivers/STM32F7xx_HAL_Driver/stm32f7xx_hal_flash_ex.o
 .text.HAL_FLASHEx_Erase_IT
                0x0000000000000000       0xe4 Drivers/STM32F7xx_HAL_Driver/stm32f7xx_hal_flash_ex.o
 .text.HAL_FLASHEx_OBProgram
                0x0000000000000000      0x108 Drivers/STM32F7xx_HAL_Driver/stm32f7xx_hal_flash_ex.o
 .text.HAL_FLASHEx_OBGetConfig
                0x0000000000000000       0x54 Drivers/STM32F7xx_HAL_Driver/stm32f7xx_hal_flash_ex.o
 .text.FLASH_Erase_Sector
                0x0000000000000000       0x54 Drivers/STM32F7xx_HAL_Driver/stm32f7xx_hal_flash_ex.o
 .debug_info    0x0000000000000000     0x12df Drivers/STM32F7xx_HAL_Driver/stm32f7xx_hal_flash_ex.o
 .debug_abbrev  0x0000000000000000      0x3a9 Drivers/STM32F7xx_HAL_Driver/stm32f7xx_hal_flash_ex.o
 .debug_loc     0x0000000000000000      0x759 Drivers/STM32F7xx_HAL_Driver/stm32f7xx_hal_flash_ex.o
 .debug_aranges
                0x0000000000000000       0x40 Drivers/STM32F7xx_HAL_Driver/stm32f7xx_hal_flash_ex.o
 .debug_ranges  0x0000000000000000      0x188 Drivers/STM32F7xx_HAL_Driver/stm32f7xx_hal_flash_ex.o
 .debug_line    0x0000000000000000      0x506 Drivers/STM32F7xx_HAL_Driver/stm32f7xx_hal_flash_ex.o
 .debug_str     0x0000000000000000      0xa9b Drivers/STM32F7xx_HAL_Driver/stm32f7xx_hal_flash_ex.o
 .comment       0x0000000000000000       0x7d Drivers/STM32F7xx_HAL_Driver/stm32f7xx_hal_flash_ex.o
 .debug_frame   0x0000000000000000       0xa0 Drivers/STM32F7xx_HAL_Driver/stm32f7xx_hal_flash_ex.o
 .ARM.attributes
                0x0000000000000000       0x33 Drivers/STM32F7xx_HAL_Driver/stm32f7xx_hal_flash_ex.o
 .text          0x0000000000000000        0x0 Drivers/STM32F7xx_HAL_Driver/stm32f7xx_hal_gpio.o
 .data          0x0000000000000000        0x0 Drivers/STM32F7xx_HAL_Driver/stm32f7xx_hal_gpio.o
 .bss           0x0000000000000000        0x0 Drivers/STM32F7xx_HAL_Driver/stm32f7xx_hal_gpio.o
 .text.HAL_GPIO_DeInit
                0x0000000000000000      0x188 Drivers/STM32F7xx_HAL_Driver/stm32f7xx_hal_gpio.o
 .text.HAL_GPIO_ReadPin
                0x0000000000000000        0xc Drivers/STM32F7xx_HAL_Driver/stm32f7xx_hal_gpio.o
 .text.HAL_GPIO_LockPin
                0x0000000000000000       0x2c Drivers/STM32F7xx_HAL_Driver/stm32f7xx_hal_gpio.o
 .text.HAL_GPIO_EXTI_Callback
                0x0000000000000000        0x4 Drivers/STM32F7xx_HAL_Driver/stm32f7xx_hal_gpio.o
 .text.HAL_GPIO_EXTI_IRQHandler
                0x0000000000000000       0x18 Drivers/STM32F7xx_HAL_Driver/stm32f7xx_hal_gpio.o
 .text          0x0000000000000000        0x0 Drivers/STM32F7xx_HAL_Driver/stm32f7xx_hal_i2c.o
 .data          0x0000000000000000        0x0 Drivers/STM32F7xx_HAL_Driver/stm32f7xx_hal_i2c.o
 .bss           0x0000000000000000        0x0 Drivers/STM32F7xx_HAL_Driver/stm32f7xx_hal_i2c.o
 .text.I2C_DMASlaveReceiveCplt
                0x0000000000000000        0x4 Drivers/STM32F7xx_HAL_Driver/stm32f7xx_hal_i2c.o
 .text.I2C_DMAMasterTransmitCplt
                0x0000000000000000       0x7c Drivers/STM32F7xx_HAL_Driver/stm32f7xx_hal_i2c.o
 .text.I2C_DMAMasterReceiveCplt
                0x0000000000000000       0x7c Drivers/STM32F7xx_HAL_Driver/stm32f7xx_hal_i2c.o
 .text.I2C_WaitOnRXNEFlagUntilTimeout
                0x0000000000000000       0xf0 Drivers/STM32F7xx_HAL_Driver/stm32f7xx_hal_i2c.o
 .text.I2C_DMASlaveTransmitCplt
                0x0000000000000000        0x4 Drivers/STM32F7xx_HAL_Driver/stm32f7xx_hal_i2c.o
 .text.I2C_WaitOnTXISFlagUntilTimeout
                0x0000000000000000       0xc4 Drivers/STM32F7xx_HAL_Driver/stm32f7xx_hal_i2c.o
 .text.I2C_WaitOnSTOPFlagUntilTimeout
                0x0000000000000000       0xc8 Drivers/STM32F7xx_HAL_Driver/stm32f7xx_hal_i2c.o
 .text.I2C_RequestMemoryRead
                0x0000000000000000       0xa4 Drivers/STM32F7xx_HAL_Driver/stm32f7xx_hal_i2c.o
 .text.I2C_RequestMemoryWrite
                0x0000000000000000       0xa8 Drivers/STM32F7xx_HAL_Driver/stm32f7xx_hal_i2c.o
 .text.HAL_I2C_MspInit
                0x0000000000000000        0x4 Drivers/STM32F7xx_HAL_Driver/stm32f7xx_hal_i2c.o
 .text.HAL_I2C_MspDeInit
                0x0000000000000000        0x4 Drivers/STM32F7xx_HAL_Driver/stm32f7xx_hal_i2c.o
 .text.HAL_I2C_DeInit
                0x0000000000000000       0x34 Drivers/STM32F7xx_HAL_Driver/stm32f7xx_hal_i2c.o
 .text.HAL_I2C_Master_Transmit
                0x0000000000000000      0x19c Drivers/STM32F7xx_HAL_Driver/stm32f7xx_hal_i2c.o
 .text.HAL_I2C_Master_Receive
                0x0000000000000000      0x198 Drivers/STM32F7xx_HAL_Driver/stm32f7xx_hal_i2c.o
 .text.HAL_I2C_Slave_Transmit
                0x0000000000000000      0x1a8 Drivers/STM32F7xx_HAL_Driver/stm32f7xx_hal_i2c.o
 .text.HAL_I2C_Slave_Receive
                0x0000000000000000      0x18c Drivers/STM32F7xx_HAL_Driver/stm32f7xx_hal_i2c.o
 .text.HAL_I2C_Master_Transmit_IT
                0x0000000000000000       0x94 Drivers/STM32F7xx_HAL_Driver/stm32f7xx_hal_i2c.o
 .text.HAL_I2C_Master_Receive_IT
                0x0000000000000000       0x94 Drivers/STM32F7xx_HAL_Driver/stm32f7xx_hal_i2c.o
 .text.HAL_I2C_Slave_Transmit_IT
                0x0000000000000000       0x60 Drivers/STM32F7xx_HAL_Driver/stm32f7xx_hal_i2c.o
 .text.HAL_I2C_Slave_Receive_IT
                0x0000000000000000       0x60 Drivers/STM32F7xx_HAL_Driver/stm32f7xx_hal_i2c.o
 .text.HAL_I2C_Master_Transmit_DMA
                0x0000000000000000      0x13c Drivers/STM32F7xx_HAL_Driver/stm32f7xx_hal_i2c.o
 .text.HAL_I2C_Master_Receive_DMA
                0x0000000000000000      0x138 Drivers/STM32F7xx_HAL_Driver/stm32f7xx_hal_i2c.o
 .text.HAL_I2C_Slave_Transmit_DMA
                0x0000000000000000       0x9c Drivers/STM32F7xx_HAL_Driver/stm32f7xx_hal_i2c.o
 .text.HAL_I2C_Slave_Receive_DMA
                0x0000000000000000       0xa0 Drivers/STM32F7xx_HAL_Driver/stm32f7xx_hal_i2c.o
 .text.HAL_I2C_Mem_Write
                0x0000000000000000      0x1c8 Drivers/STM32F7xx_HAL_Driver/stm32f7xx_hal_i2c.o
 .text.HAL_I2C_Mem_Read
                0x0000000000000000      0x1e8 Drivers/STM32F7xx_HAL_Driver/stm32f7xx_hal_i2c.o
 .text.HAL_I2C_Mem_Write_IT
                0x0000000000000000      0x110 Drivers/STM32F7xx_HAL_Driver/stm32f7xx_hal_i2c.o
 .text.HAL_I2C_Mem_Read_IT
                0x0000000000000000      0x114 Drivers/STM32F7xx_HAL_Driver/stm32f7xx_hal_i2c.o
 .text.HAL_I2C_Mem_Write_DMA
                0x0000000000000000      0x154 Drivers/STM32F7xx_HAL_Driver/stm32f7xx_hal_i2c.o
 .text.HAL_I2C_Mem_Read_DMA
                0x0000000000000000      0x158 Drivers/STM32F7xx_HAL_Driver/stm32f7xx_hal_i2c.o
 .text.HAL_I2C_IsDeviceReady
                0x0000000000000000      0x188 Drivers/STM32F7xx_HAL_Driver/stm32f7xx_hal_i2c.o
 .text.HAL_I2C_Master_Sequential_Transmit_IT
                0x0000000000000000       0x98 Drivers/STM32F7xx_HAL_Driver/stm32f7xx_hal_i2c.o
 .text.HAL_I2C_Master_Sequential_Receive_IT
                0x0000000000000000       0x98 Drivers/STM32F7xx_HAL_Driver/stm32f7xx_hal_i2c.o
 .text.HAL_I2C_Slave_Sequential_Transmit_IT
                0x0000000000000000       0xa8 Drivers/STM32F7xx_HAL_Driver/stm32f7xx_hal_i2c.o
 .text.HAL_I2C_Slave_Sequential_Receive_IT
                0x0000000000000000       0xa8 Drivers/STM32F7xx_HAL_Driver/stm32f7xx_hal_i2c.o
 .text.HAL_I2C_EnableListen_IT
                0x0000000000000000       0x30 Drivers/STM32F7xx_HAL_Driver/stm32f7xx_hal_i2c.o
 .text.HAL_I2C_DisableListen_IT
                0x0000000000000000       0x40 Drivers/STM32F7xx_HAL_Driver/stm32f7xx_hal_i2c.o
 .text.HAL_I2C_Master_Abort_IT
                0x0000000000000000       0xb0 Drivers/STM32F7xx_HAL_Driver/stm32f7xx_hal_i2c.o
 .text.HAL_I2C_EV_IRQHandler
                0x0000000000000000       0x1c Drivers/STM32F7xx_HAL_Driver/stm32f7xx_hal_i2c.o
 .text.HAL_I2C_MasterTxCpltCallback
                0x0000000000000000        0x4 Drivers/STM32F7xx_HAL_Driver/stm32f7xx_hal_i2c.o
 .text.HAL_I2C_MasterRxCpltCallback
                0x0000000000000000        0x4 Drivers/STM32F7xx_HAL_Driver/stm32f7xx_hal_i2c.o
 .text.HAL_I2C_SlaveTxCpltCallback
                0x0000000000000000        0x4 Drivers/STM32F7xx_HAL_Driver/stm32f7xx_hal_i2c.o
 .text.HAL_I2C_SlaveRxCpltCallback
                0x0000000000000000        0x4 Drivers/STM32F7xx_HAL_Driver/stm32f7xx_hal_i2c.o
 .text.HAL_I2C_AddrCallback
                0x0000000000000000        0x4 Drivers/STM32F7xx_HAL_Driver/stm32f7xx_hal_i2c.o
 .text.HAL_I2C_ListenCpltCallback
                0x0000000000000000        0x4 Drivers/STM32F7xx_HAL_Driver/stm32f7xx_hal_i2c.o
 .text.HAL_I2C_MemTxCpltCallback
                0x0000000000000000        0x4 Drivers/STM32F7xx_HAL_Driver/stm32f7xx_hal_i2c.o
 .text.HAL_I2C_MemRxCpltCallback
                0x0000000000000000        0x4 Drivers/STM32F7xx_HAL_Driver/stm32f7xx_hal_i2c.o
 .text.HAL_I2C_ErrorCallback
                0x0000000000000000        0x4 Drivers/STM32F7xx_HAL_Driver/stm32f7xx_hal_i2c.o
 .text.HAL_I2C_AbortCpltCallback
                0x0000000000000000        0x4 Drivers/STM32F7xx_HAL_Driver/stm32f7xx_hal_i2c.o
 .text.I2C_ITError
                0x0000000000000000      0x128 Drivers/STM32F7xx_HAL_Driver/stm32f7xx_hal_i2c.o
 .text.I2C_ITSlaveCplt
                0x0000000000000000      0x164 Drivers/STM32F7xx_HAL_Driver/stm32f7xx_hal_i2c.o
 .text.I2C_Slave_ISR_IT
                0x0000000000000000      0x308 Drivers/STM32F7xx_HAL_Driver/stm32f7xx_hal_i2c.o
 .text.I2C_Slave_ISR_DMA
                0x0000000000000000       0x74 Drivers/STM32F7xx_HAL_Driver/stm32f7xx_hal_i2c.o
 .text.I2C_DMAAbort
                0x0000000000000000       0x38 Drivers/STM32F7xx_HAL_Driver/stm32f7xx_hal_i2c.o
 .text.I2C_DMAError
                0x0000000000000000      0x130 Drivers/STM32F7xx_HAL_Driver/stm32f7xx_hal_i2c.o
 .text.HAL_I2C_ER_IRQHandler
                0x0000000000000000      0x19c Drivers/STM32F7xx_HAL_Driver/stm32f7xx_hal_i2c.o
 .text.I2C_ITMasterCplt
                0x0000000000000000      0x20c Drivers/STM32F7xx_HAL_Driver/stm32f7xx_hal_i2c.o
 .text.I2C_Master_ISR_IT
                0x0000000000000000      0x23c Drivers/STM32F7xx_HAL_Driver/stm32f7xx_hal_i2c.o
 .text.I2C_Master_ISR_DMA
                0x0000000000000000       0xfc Drivers/STM32F7xx_HAL_Driver/stm32f7xx_hal_i2c.o
 .text.HAL_I2C_GetState
                0x0000000000000000        0x8 Drivers/STM32F7xx_HAL_Driver/stm32f7xx_hal_i2c.o
 .text.HAL_I2C_GetMode
                0x0000000000000000        0x8 Drivers/STM32F7xx_HAL_Driver/stm32f7xx_hal_i2c.o
 .text.HAL_I2C_GetError
                0x0000000000000000        0x4 Drivers/STM32F7xx_HAL_Driver/stm32f7xx_hal_i2c.o
 .text          0x0000000000000000        0x0 Drivers/STM32F7xx_HAL_Driver/stm32f7xx_hal_i2c_ex.o
 .data          0x0000000000000000        0x0 Drivers/STM32F7xx_HAL_Driver/stm32f7xx_hal_i2c_ex.o
 .bss           0x0000000000000000        0x0 Drivers/STM32F7xx_HAL_Driver/stm32f7xx_hal_i2c_ex.o
 .text.HAL_I2CEx_EnableFastModePlus
                0x0000000000000000       0x2c Drivers/STM32F7xx_HAL_Driver/stm32f7xx_hal_i2c_ex.o
 .text.HAL_I2CEx_DisableFastModePlus
                0x0000000000000000       0x2c Drivers/STM32F7xx_HAL_Driver/stm32f7xx_hal_i2c_ex.o
 .text          0x0000000000000000        0x0 Drivers/STM32F7xx_HAL_Driver/stm32f7xx_hal_pcd.o
 .data          0x0000000000000000        0x0 Drivers/STM32F7xx_HAL_Driver/stm32f7xx_hal_pcd.o
 .bss           0x0000000000000000        0x0 Drivers/STM32F7xx_HAL_Driver/stm32f7xx_hal_pcd.o
 .text.HAL_PCD_MspInit
                0x0000000000000000        0x4 Drivers/STM32F7xx_HAL_Driver/stm32f7xx_hal_pcd.o
 .text.HAL_PCD_MspDeInit
                0x0000000000000000        0x4 Drivers/STM32F7xx_HAL_Driver/stm32f7xx_hal_pcd.o
 .text.HAL_PCD_DeInit
                0x0000000000000000       0x44 Drivers/STM32F7xx_HAL_Driver/stm32f7xx_hal_pcd.o
 .text.HAL_PCD_Start
                0x0000000000000000       0x2c Drivers/STM32F7xx_HAL_Driver/stm32f7xx_hal_pcd.o
 .text.HAL_PCD_Stop
                0x0000000000000000       0x30 Drivers/STM32F7xx_HAL_Driver/stm32f7xx_hal_pcd.o
 .text.HAL_PCD_DataOutStageCallback
                0x0000000000000000        0x4 Drivers/STM32F7xx_HAL_Driver/stm32f7xx_hal_pcd.o
 .text.HAL_PCD_DataInStageCallback
                0x0000000000000000        0x4 Drivers/STM32F7xx_HAL_Driver/stm32f7xx_hal_pcd.o
 .text.HAL_PCD_SetupStageCallback
                0x0000000000000000        0x4 Drivers/STM32F7xx_HAL_Driver/stm32f7xx_hal_pcd.o
 .text.HAL_PCD_SOFCallback
                0x0000000000000000        0x4 Drivers/STM32F7xx_HAL_Driver/stm32f7xx_hal_pcd.o
 .text.HAL_PCD_ResetCallback
                0x0000000000000000        0x4 Drivers/STM32F7xx_HAL_Driver/stm32f7xx_hal_pcd.o
 .text.HAL_PCD_SuspendCallback
                0x0000000000000000        0x4 Drivers/STM32F7xx_HAL_Driver/stm32f7xx_hal_pcd.o
 .text.HAL_PCD_ResumeCallback
                0x0000000000000000        0x4 Drivers/STM32F7xx_HAL_Driver/stm32f7xx_hal_pcd.o
 .text.HAL_PCD_ISOOUTIncompleteCallback
                0x0000000000000000        0x4 Drivers/STM32F7xx_HAL_Driver/stm32f7xx_hal_pcd.o
 .text.HAL_PCD_ISOINIncompleteCallback
                0x0000000000000000        0x4 Drivers/STM32F7xx_HAL_Driver/stm32f7xx_hal_pcd.o
 .text.HAL_PCD_ConnectCallback
                0x0000000000000000        0x4 Drivers/STM32F7xx_HAL_Driver/stm32f7xx_hal_pcd.o
 .text.HAL_PCD_DisconnectCallback
                0x0000000000000000        0x4 Drivers/STM32F7xx_HAL_Driver/stm32f7xx_hal_pcd.o
 .text.HAL_PCD_IRQHandler
                0x0000000000000000      0x698 Drivers/STM32F7xx_HAL_Driver/stm32f7xx_hal_pcd.o
 .text.HAL_PCD_DevConnect
                0x0000000000000000       0x24 Drivers/STM32F7xx_HAL_Driver/stm32f7xx_hal_pcd.o
 .text.HAL_PCD_DevDisconnect
                0x0000000000000000       0x24 Drivers/STM32F7xx_HAL_Driver/stm32f7xx_hal_pcd.o
 .text.HAL_PCD_SetAddress
                0x0000000000000000       0x24 Drivers/STM32F7xx_HAL_Driver/stm32f7xx_hal_pcd.o
 .text.HAL_PCD_EP_Open
                0x0000000000000000       0x8c Drivers/STM32F7xx_HAL_Driver/stm32f7xx_hal_pcd.o
 .text.HAL_PCD_EP_Close
                0x0000000000000000       0x4c Drivers/STM32F7xx_HAL_Driver/stm32f7xx_hal_pcd.o
 .text.HAL_PCD_EP_Receive
                0x0000000000000000       0x50 Drivers/STM32F7xx_HAL_Driver/stm32f7xx_hal_pcd.o
 .text.HAL_PCD_EP_GetRxCount
                0x0000000000000000       0x14 Drivers/STM32F7xx_HAL_Driver/stm32f7xx_hal_pcd.o
 .text.HAL_PCD_EP_Transmit
                0x0000000000000000       0x48 Drivers/STM32F7xx_HAL_Driver/stm32f7xx_hal_pcd.o
 .text.HAL_PCD_EP_SetStall
                0x0000000000000000       0x5c Drivers/STM32F7xx_HAL_Driver/stm32f7xx_hal_pcd.o
 .text.HAL_PCD_EP_ClrStall
                0x0000000000000000       0x50 Drivers/STM32F7xx_HAL_Driver/stm32f7xx_hal_pcd.o
 .text.HAL_PCD_EP_Flush
                0x0000000000000000       0x3c Drivers/STM32F7xx_HAL_Driver/stm32f7xx_hal_pcd.o
 .text.HAL_PCD_ActivateRemoteWakeup
                0x0000000000000000       0x1c Drivers/STM32F7xx_HAL_Driver/stm32f7xx_hal_pcd.o
 .text.HAL_PCD_DeActivateRemoteWakeup
                0x0000000000000000       0x14 Drivers/STM32F7xx_HAL_Driver/stm32f7xx_hal_pcd.o
 .text.HAL_PCD_GetState
                0x0000000000000000        0x8 Drivers/STM32F7xx_HAL_Driver/stm32f7xx_hal_pcd.o
 .text          0x0000000000000000        0x0 Drivers/STM32F7xx_HAL_Driver/stm32f7xx_hal_pcd_ex.o
 .data          0x0000000000000000        0x0 Drivers/STM32F7xx_HAL_Driver/stm32f7xx_hal_pcd_ex.o
 .bss           0x0000000000000000        0x0 Drivers/STM32F7xx_HAL_Driver/stm32f7xx_hal_pcd_ex.o
 .text.HAL_PCDEx_SetTxFiFo
                0x0000000000000000       0x4c Drivers/STM32F7xx_HAL_Driver/stm32f7xx_hal_pcd_ex.o
 .text.HAL_PCDEx_SetRxFiFo
                0x0000000000000000        0x8 Drivers/STM32F7xx_HAL_Driver/stm32f7xx_hal_pcd_ex.o
 .text.HAL_PCDEx_DeActivateLPM
                0x0000000000000000       0x28 Drivers/STM32F7xx_HAL_Driver/stm32f7xx_hal_pcd_ex.o
 .text.HAL_PCDEx_LPM_Callback
                0x0000000000000000        0x4 Drivers/STM32F7xx_HAL_Driver/stm32f7xx_hal_pcd_ex.o
 .text          0x0000000000000000        0x0 Drivers/STM32F7xx_HAL_Driver/stm32f7xx_hal_pwr.o
 .data          0x0000000000000000        0x0 Drivers/STM32F7xx_HAL_Driver/stm32f7xx_hal_pwr.o
 .bss           0x0000000000000000        0x0 Drivers/STM32F7xx_HAL_Driver/stm32f7xx_hal_pwr.o
 .text.HAL_PWR_DeInit
                0x0000000000000000       0x18 Drivers/STM32F7xx_HAL_Driver/stm32f7xx_hal_pwr.o
 .text.HAL_PWR_EnableBkUpAccess
                0x0000000000000000       0x10 Drivers/STM32F7xx_HAL_Driver/stm32f7xx_hal_pwr.o
 .text.HAL_PWR_DisableBkUpAccess
                0x0000000000000000       0x10 Drivers/STM32F7xx_HAL_Driver/stm32f7xx_hal_pwr.o
 .text.HAL_PWR_ConfigPVD
                0x0000000000000000       0x78 Drivers/STM32F7xx_HAL_Driver/stm32f7xx_hal_pwr.o
 .text.HAL_PWR_EnablePVD
                0x0000000000000000       0x10 Drivers/STM32F7xx_HAL_Driver/stm32f7xx_hal_pwr.o
 .text.HAL_PWR_DisablePVD
                0x0000000000000000       0x10 Drivers/STM32F7xx_HAL_Driver/stm32f7xx_hal_pwr.o
 .text.HAL_PWR_EnableWakeUpPin
                0x0000000000000000       0x24 Drivers/STM32F7xx_HAL_Driver/stm32f7xx_hal_pwr.o
 .text.HAL_PWR_DisableWakeUpPin
                0x0000000000000000       0x10 Drivers/STM32F7xx_HAL_Driver/stm32f7xx_hal_pwr.o
 .text.HAL_PWR_EnterSLEEPMode
                0x0000000000000000       0x20 Drivers/STM32F7xx_HAL_Driver/stm32f7xx_hal_pwr.o
 .text.HAL_PWR_EnterSTOPMode
                0x0000000000000000       0x40 Drivers/STM32F7xx_HAL_Driver/stm32f7xx_hal_pwr.o
 .text.HAL_PWR_EnterSTANDBYMode
                0x0000000000000000       0x20 Drivers/STM32F7xx_HAL_Driver/stm32f7xx_hal_pwr.o
 .text.HAL_PWR_PVDCallback
                0x0000000000000000        0x4 Drivers/STM32F7xx_HAL_Driver/stm32f7xx_hal_pwr.o
 .text.HAL_PWR_PVD_IRQHandler
                0x0000000000000000       0x1c Drivers/STM32F7xx_HAL_Driver/stm32f7xx_hal_pwr.o
 .text.HAL_PWR_EnableSleepOnExit
                0x0000000000000000       0x10 Drivers/STM32F7xx_HAL_Driver/stm32f7xx_hal_pwr.o
 .text.HAL_PWR_DisableSleepOnExit
                0x0000000000000000       0x10 Drivers/STM32F7xx_HAL_Driver/stm32f7xx_hal_pwr.o
 .text.HAL_PWR_EnableSEVOnPend
                0x0000000000000000       0x10 Drivers/STM32F7xx_HAL_Driver/stm32f7xx_hal_pwr.o
 .text.HAL_PWR_DisableSEVOnPend
                0x0000000000000000       0x10 Drivers/STM32F7xx_HAL_Driver/stm32f7xx_hal_pwr.o
 .debug_info    0x0000000000000000     0x11e4 Drivers/STM32F7xx_HAL_Driver/stm32f7xx_hal_pwr.o
 .debug_abbrev  0x0000000000000000      0x24a Drivers/STM32F7xx_HAL_Driver/stm32f7xx_hal_pwr.o
 .debug_loc     0x0000000000000000       0xae Drivers/STM32F7xx_HAL_Driver/stm32f7xx_hal_pwr.o
 .debug_aranges
                0x0000000000000000       0xa0 Drivers/STM32F7xx_HAL_Driver/stm32f7xx_hal_pwr.o
 .debug_ranges  0x0000000000000000       0x90 Drivers/STM32F7xx_HAL_Driver/stm32f7xx_hal_pwr.o
 .debug_line    0x0000000000000000      0x3da Drivers/STM32F7xx_HAL_Driver/stm32f7xx_hal_pwr.o
 .debug_str     0x0000000000000000      0xae2 Drivers/STM32F7xx_HAL_Driver/stm32f7xx_hal_pwr.o
 .comment       0x0000000000000000       0x7d Drivers/STM32F7xx_HAL_Driver/stm32f7xx_hal_pwr.o
 .debug_frame   0x0000000000000000      0x14c Drivers/STM32F7xx_HAL_Driver/stm32f7xx_hal_pwr.o
 .ARM.attributes
                0x0000000000000000       0x33 Drivers/STM32F7xx_HAL_Driver/stm32f7xx_hal_pwr.o
 .text          0x0000000000000000        0x0 Drivers/STM32F7xx_HAL_Driver/stm32f7xx_hal_pwr_ex.o
 .data          0x0000000000000000        0x0 Drivers/STM32F7xx_HAL_Driver/stm32f7xx_hal_pwr_ex.o
 .bss           0x0000000000000000        0x0 Drivers/STM32F7xx_HAL_Driver/stm32f7xx_hal_pwr_ex.o
 .text.HAL_PWREx_EnableBkUpReg
                0x0000000000000000       0x3c Drivers/STM32F7xx_HAL_Driver/stm32f7xx_hal_pwr_ex.o
 .text.HAL_PWREx_DisableBkUpReg
                0x0000000000000000       0x3c Drivers/STM32F7xx_HAL_Driver/stm32f7xx_hal_pwr_ex.o
 .text.HAL_PWREx_EnableFlashPowerDown
                0x0000000000000000       0x10 Drivers/STM32F7xx_HAL_Driver/stm32f7xx_hal_pwr_ex.o
 .text.HAL_PWREx_DisableFlashPowerDown
                0x0000000000000000       0x10 Drivers/STM32F7xx_HAL_Driver/stm32f7xx_hal_pwr_ex.o
 .text.HAL_PWREx_EnableMainRegulatorLowVoltage
                0x0000000000000000       0x10 Drivers/STM32F7xx_HAL_Driver/stm32f7xx_hal_pwr_ex.o
 .text.HAL_PWREx_DisableMainRegulatorLowVoltage
                0x0000000000000000       0x10 Drivers/STM32F7xx_HAL_Driver/stm32f7xx_hal_pwr_ex.o
 .text.HAL_PWREx_EnableLowRegulatorLowVoltage
                0x0000000000000000       0x10 Drivers/STM32F7xx_HAL_Driver/stm32f7xx_hal_pwr_ex.o
 .text.HAL_PWREx_DisableLowRegulatorLowVoltage
                0x0000000000000000       0x10 Drivers/STM32F7xx_HAL_Driver/stm32f7xx_hal_pwr_ex.o
 .text.HAL_PWREx_DisableOverDrive
                0x0000000000000000       0x78 Drivers/STM32F7xx_HAL_Driver/stm32f7xx_hal_pwr_ex.o
 .text.HAL_PWREx_EnterUnderDriveSTOPMode
                0x0000000000000000       0x98 Drivers/STM32F7xx_HAL_Driver/stm32f7xx_hal_pwr_ex.o
 .text.HAL_PWREx_GetVoltageRange
                0x0000000000000000       0x10 Drivers/STM32F7xx_HAL_Driver/stm32f7xx_hal_pwr_ex.o
 .text.HAL_PWREx_ControlVoltageScaling
                0x0000000000000000       0xb4 Drivers/STM32F7xx_HAL_Driver/stm32f7xx_hal_pwr_ex.o
 .text          0x0000000000000000        0x0 Drivers/STM32F7xx_HAL_Driver/stm32f7xx_hal_rcc.o
 .data          0x0000000000000000        0x0 Drivers/STM32F7xx_HAL_Driver/stm32f7xx_hal_rcc.o
 .bss           0x0000000000000000        0x0 Drivers/STM32F7xx_HAL_Driver/stm32f7xx_hal_rcc.o
 .text.HAL_RCC_DeInit
                0x0000000000000000       0x60 Drivers/STM32F7xx_HAL_Driver/stm32f7xx_hal_rcc.o
 .text.HAL_RCC_MCOConfig
                0x0000000000000000       0x9c Drivers/STM32F7xx_HAL_Driver/stm32f7xx_hal_rcc.o
 .text.HAL_RCC_EnableCSS
                0x0000000000000000       0x10 Drivers/STM32F7xx_HAL_Driver/stm32f7xx_hal_rcc.o
 .text.HAL_RCC_DisableCSS
                0x0000000000000000       0x10 Drivers/STM32F7xx_HAL_Driver/stm32f7xx_hal_rcc.o
 .text.HAL_RCC_GetOscConfig
                0x0000000000000000       0xac Drivers/STM32F7xx_HAL_Driver/stm32f7xx_hal_rcc.o
 .text.HAL_RCC_CSSCallback
                0x0000000000000000        0x4 Drivers/STM32F7xx_HAL_Driver/stm32f7xx_hal_rcc.o
 .text.HAL_RCC_NMI_IRQHandler
                0x0000000000000000       0x20 Drivers/STM32F7xx_HAL_Driver/stm32f7xx_hal_rcc.o
 .text          0x0000000000000000        0x0 Drivers/STM32F7xx_HAL_Driver/stm32f7xx_hal_rcc_ex.o
 .data          0x0000000000000000        0x0 Drivers/STM32F7xx_HAL_Driver/stm32f7xx_hal_rcc_ex.o
 .bss           0x0000000000000000        0x0 Drivers/STM32F7xx_HAL_Driver/stm32f7xx_hal_rcc_ex.o
 .text.HAL_RCCEx_GetPeriphCLKConfig
                0x0000000000000000      0x17c Drivers/STM32F7xx_HAL_Driver/stm32f7xx_hal_rcc_ex.o
 .text.HAL_RCCEx_GetPeriphCLKFreq
                0x0000000000000000       0xf8 Drivers/STM32F7xx_HAL_Driver/stm32f7xx_hal_rcc_ex.o
 .text          0x0000000000000000        0x0 Drivers/STM32F7xx_HAL_Driver/stm32f7xx_hal_spi.o
 .data          0x0000000000000000        0x0 Drivers/STM32F7xx_HAL_Driver/stm32f7xx_hal_spi.o
 .bss           0x0000000000000000        0x0 Drivers/STM32F7xx_HAL_Driver/stm32f7xx_hal_spi.o
 .text.SPI_WaitFifoStateUntilTimeout.part.1
                0x0000000000000000       0x58 Drivers/STM32F7xx_HAL_Driver/stm32f7xx_hal_spi.o
 .text.SPI_AbortRx_ISR
                0x0000000000000000      0x138 Drivers/STM32F7xx_HAL_Driver/stm32f7xx_hal_spi.o
 .text.SPI_EndRxTxTransaction.constprop.11
                0x0000000000000000       0xd4 Drivers/STM32F7xx_HAL_Driver/stm32f7xx_hal_spi.o
 .text.SPI_AbortTx_ISR
                0x0000000000000000       0xdc Drivers/STM32F7xx_HAL_Driver/stm32f7xx_hal_spi.o
 .text.SPI_EndRxTxTransaction
                0x0000000000000000      0x104 Drivers/STM32F7xx_HAL_Driver/stm32f7xx_hal_spi.o
 .text.SPI_EndRxTransaction.constprop.10
                0x0000000000000000       0xdc Drivers/STM32F7xx_HAL_Driver/stm32f7xx_hal_spi.o
 .text.HAL_SPI_MspInit
                0x0000000000000000        0x4 Drivers/STM32F7xx_HAL_Driver/stm32f7xx_hal_spi.o
 .text.HAL_SPI_MspDeInit
                0x0000000000000000        0x4 Drivers/STM32F7xx_HAL_Driver/stm32f7xx_hal_spi.o
 .text.HAL_SPI_DeInit
                0x0000000000000000       0x30 Drivers/STM32F7xx_HAL_Driver/stm32f7xx_hal_spi.o
 .text.HAL_SPI_Transmit
                0x0000000000000000      0x210 Drivers/STM32F7xx_HAL_Driver/stm32f7xx_hal_spi.o
 .text.HAL_SPI_Receive
                0x0000000000000000      0x5d8 Drivers/STM32F7xx_HAL_Driver/stm32f7xx_hal_spi.o
 .text.HAL_SPI_TransmitReceive
                0x0000000000000000      0x2b4 Drivers/STM32F7xx_HAL_Driver/stm32f7xx_hal_spi.o
 .text.HAL_SPI_Transmit_IT
                0x0000000000000000       0xa4 Drivers/STM32F7xx_HAL_Driver/stm32f7xx_hal_spi.o
 .text.HAL_SPI_Receive_IT
                0x0000000000000000      0x16c Drivers/STM32F7xx_HAL_Driver/stm32f7xx_hal_spi.o
 .text.HAL_SPI_TransmitReceive_IT
                0x0000000000000000       0xd8 Drivers/STM32F7xx_HAL_Driver/stm32f7xx_hal_spi.o
 .text.HAL_SPI_Transmit_DMA
                0x0000000000000000       0xf8 Drivers/STM32F7xx_HAL_Driver/stm32f7xx_hal_spi.o
 .text.HAL_SPI_Receive_DMA
                0x0000000000000000      0x278 Drivers/STM32F7xx_HAL_Driver/stm32f7xx_hal_spi.o
 .text.HAL_SPI_TransmitReceive_DMA
                0x0000000000000000      0x1a4 Drivers/STM32F7xx_HAL_Driver/stm32f7xx_hal_spi.o
 .text.HAL_SPI_Abort
                0x0000000000000000      0x26c Drivers/STM32F7xx_HAL_Driver/stm32f7xx_hal_spi.o
 .text.HAL_SPI_DMAPause
                0x0000000000000000       0x28 Drivers/STM32F7xx_HAL_Driver/stm32f7xx_hal_spi.o
 .text.HAL_SPI_DMAResume
                0x0000000000000000       0x28 Drivers/STM32F7xx_HAL_Driver/stm32f7xx_hal_spi.o
 .text.HAL_SPI_DMAStop
                0x0000000000000000       0x28 Drivers/STM32F7xx_HAL_Driver/stm32f7xx_hal_spi.o
 .text.HAL_SPI_TxCpltCallback
                0x0000000000000000        0x4 Drivers/STM32F7xx_HAL_Driver/stm32f7xx_hal_spi.o
 .text.HAL_SPI_RxCpltCallback
                0x0000000000000000        0x4 Drivers/STM32F7xx_HAL_Driver/stm32f7xx_hal_spi.o
 .text.HAL_SPI_TxRxCpltCallback
                0x0000000000000000        0x4 Drivers/STM32F7xx_HAL_Driver/stm32f7xx_hal_spi.o
 .text.HAL_SPI_TxHalfCpltCallback
                0x0000000000000000        0x4 Drivers/STM32F7xx_HAL_Driver/stm32f7xx_hal_spi.o
 .text.SPI_DMAHalfTransmitCplt
                0x0000000000000000        0xc Drivers/STM32F7xx_HAL_Driver/stm32f7xx_hal_spi.o
 .text.HAL_SPI_RxHalfCpltCallback
                0x0000000000000000        0x4 Drivers/STM32F7xx_HAL_Driver/stm32f7xx_hal_spi.o
 .text.SPI_DMAHalfReceiveCplt
                0x0000000000000000        0xc Drivers/STM32F7xx_HAL_Driver/stm32f7xx_hal_spi.o
 .text.HAL_SPI_TxRxHalfCpltCallback
                0x0000000000000000        0x4 Drivers/STM32F7xx_HAL_Driver/stm32f7xx_hal_spi.o
 .text.SPI_DMAHalfTransmitReceiveCplt
                0x0000000000000000        0xc Drivers/STM32F7xx_HAL_Driver/stm32f7xx_hal_spi.o
 .text.HAL_SPI_ErrorCallback
                0x0000000000000000        0x4 Drivers/STM32F7xx_HAL_Driver/stm32f7xx_hal_spi.o
 .text.SPI_TxISR_16BIT
                0x0000000000000000       0x80 Drivers/STM32F7xx_HAL_Driver/stm32f7xx_hal_spi.o
 .text.SPI_RxISR_16BIT
                0x0000000000000000       0x6c Drivers/STM32F7xx_HAL_Driver/stm32f7xx_hal_spi.o
 .text.SPI_2linesRxISR_8BIT
                0x0000000000000000       0xc0 Drivers/STM32F7xx_HAL_Driver/stm32f7xx_hal_spi.o
 .text.SPI_DMAError
                0x0000000000000000       0x24 Drivers/STM32F7xx_HAL_Driver/stm32f7xx_hal_spi.o
 .text.SPI_DMATransmitCplt
                0x0000000000000000       0x6c Drivers/STM32F7xx_HAL_Driver/stm32f7xx_hal_spi.o
 .text.SPI_DMAReceiveCplt
                0x0000000000000000       0x54 Drivers/STM32F7xx_HAL_Driver/stm32f7xx_hal_spi.o
 .text.SPI_DMATransmitReceiveCplt
                0x0000000000000000       0x5c Drivers/STM32F7xx_HAL_Driver/stm32f7xx_hal_spi.o
 .text.HAL_SPI_IRQHandler
                0x0000000000000000       0xe8 Drivers/STM32F7xx_HAL_Driver/stm32f7xx_hal_spi.o
 .text.SPI_DMAAbortOnError
                0x0000000000000000       0x14 Drivers/STM32F7xx_HAL_Driver/stm32f7xx_hal_spi.o
 .text.SPI_RxISR_8BIT
                0x0000000000000000       0x6c Drivers/STM32F7xx_HAL_Driver/stm32f7xx_hal_spi.o
 .text.SPI_TxISR_8BIT
                0x0000000000000000       0x80 Drivers/STM32F7xx_HAL_Driver/stm32f7xx_hal_spi.o
 .text.SPI_2linesRxISR_16BIT
                0x0000000000000000       0x84 Drivers/STM32F7xx_HAL_Driver/stm32f7xx_hal_spi.o
 .text.SPI_2linesTxISR_16BIT
                0x0000000000000000       0x80 Drivers/STM32F7xx_HAL_Driver/stm32f7xx_hal_spi.o
 .text.SPI_2linesTxISR_8BIT
                0x0000000000000000       0xa0 Drivers/STM32F7xx_HAL_Driver/stm32f7xx_hal_spi.o
 .text.HAL_SPI_AbortCpltCallback
                0x0000000000000000        0x4 Drivers/STM32F7xx_HAL_Driver/stm32f7xx_hal_spi.o
 .text.HAL_SPI_Abort_IT
                0x0000000000000000      0x160 Drivers/STM32F7xx_HAL_Driver/stm32f7xx_hal_spi.o
 .text.SPI_DMARxAbortCallback
                0x0000000000000000      0x158 Drivers/STM32F7xx_HAL_Driver/stm32f7xx_hal_spi.o
 .text.SPI_DMATxAbortCallback
                0x0000000000000000       0xf8 Drivers/STM32F7xx_HAL_Driver/stm32f7xx_hal_spi.o
 .text.HAL_SPI_GetState
                0x0000000000000000        0x8 Drivers/STM32F7xx_HAL_Driver/stm32f7xx_hal_spi.o
 .text.HAL_SPI_GetError
                0x0000000000000000        0x4 Drivers/STM32F7xx_HAL_Driver/stm32f7xx_hal_spi.o
 .text          0x0000000000000000        0x0 Drivers/STM32F7xx_HAL_Driver/stm32f7xx_hal_tim.o
 .data          0x0000000000000000        0x0 Drivers/STM32F7xx_HAL_Driver/stm32f7xx_hal_tim.o
 .bss           0x0000000000000000        0x0 Drivers/STM32F7xx_HAL_Driver/stm32f7xx_hal_tim.o
 .text.HAL_TIM_Base_MspInit
                0x0000000000000000        0x4 Drivers/STM32F7xx_HAL_Driver/stm32f7xx_hal_tim.o
 .text.HAL_TIM_Base_MspDeInit
                0x0000000000000000        0x4 Drivers/STM32F7xx_HAL_Driver/stm32f7xx_hal_tim.o
 .text.HAL_TIM_Base_DeInit
                0x0000000000000000       0x3c Drivers/STM32F7xx_HAL_Driver/stm32f7xx_hal_tim.o
 .text.HAL_TIM_Base_Start
                0x0000000000000000       0x20 Drivers/STM32F7xx_HAL_Driver/stm32f7xx_hal_tim.o
 .text.HAL_TIM_Base_Stop
                0x0000000000000000       0x30 Drivers/STM32F7xx_HAL_Driver/stm32f7xx_hal_tim.o
 .text.HAL_TIM_Base_Stop_IT
                0x0000000000000000       0x2c Drivers/STM32F7xx_HAL_Driver/stm32f7xx_hal_tim.o
 .text.HAL_TIM_Base_Start_DMA
                0x0000000000000000       0x60 Drivers/STM32F7xx_HAL_Driver/stm32f7xx_hal_tim.o
 .text.HAL_TIM_Base_Stop_DMA
                0x0000000000000000       0x34 Drivers/STM32F7xx_HAL_Driver/stm32f7xx_hal_tim.o
 .text.HAL_TIM_OC_MspInit
                0x0000000000000000        0x4 Drivers/STM32F7xx_HAL_Driver/stm32f7xx_hal_tim.o
 .text.HAL_TIM_OC_Init
                0x0000000000000000      0x14c Drivers/STM32F7xx_HAL_Driver/stm32f7xx_hal_tim.o
 .text.HAL_TIM_OC_MspDeInit
                0x0000000000000000        0x4 Drivers/STM32F7xx_HAL_Driver/stm32f7xx_hal_tim.o
 .text.HAL_TIM_OC_DeInit
                0x0000000000000000       0x3c Drivers/STM32F7xx_HAL_Driver/stm32f7xx_hal_tim.o
 .text.HAL_TIM_OC_Start
                0x0000000000000000       0x48 Drivers/STM32F7xx_HAL_Driver/stm32f7xx_hal_tim.o
 .text.HAL_TIM_OC_Stop
                0x0000000000000000       0x6c Drivers/STM32F7xx_HAL_Driver/stm32f7xx_hal_tim.o
 .text.HAL_TIM_OC_Start_IT
                0x0000000000000000       0x90 Drivers/STM32F7xx_HAL_Driver/stm32f7xx_hal_tim.o
 .text.HAL_TIM_OC_Stop_IT
                0x0000000000000000       0xb4 Drivers/STM32F7xx_HAL_Driver/stm32f7xx_hal_tim.o
 .text.HAL_TIM_OC_Start_DMA
                0x0000000000000000      0x128 Drivers/STM32F7xx_HAL_Driver/stm32f7xx_hal_tim.o
 .text.HAL_TIM_OC_Stop_DMA
                0x0000000000000000       0xb8 Drivers/STM32F7xx_HAL_Driver/stm32f7xx_hal_tim.o
 .text.HAL_TIM_PWM_MspDeInit
                0x0000000000000000        0x4 Drivers/STM32F7xx_HAL_Driver/stm32f7xx_hal_tim.o
 .text.HAL_TIM_PWM_DeInit
                0x0000000000000000       0x3c Drivers/STM32F7xx_HAL_Driver/stm32f7xx_hal_tim.o
 .text.HAL_TIM_PWM_Stop
                0x0000000000000000       0x74 Drivers/STM32F7xx_HAL_Driver/stm32f7xx_hal_tim.o
 .text.HAL_TIM_PWM_Start_IT
                0x0000000000000000       0x90 Drivers/STM32F7xx_HAL_Driver/stm32f7xx_hal_tim.o
 .text.HAL_TIM_PWM_Stop_IT
                0x0000000000000000       0xb4 Drivers/STM32F7xx_HAL_Driver/stm32f7xx_hal_tim.o
 .text.HAL_TIM_PWM_Start_DMA
                0x0000000000000000      0x128 Drivers/STM32F7xx_HAL_Driver/stm32f7xx_hal_tim.o
 .text.HAL_TIM_PWM_Stop_DMA
                0x0000000000000000       0xb8 Drivers/STM32F7xx_HAL_Driver/stm32f7xx_hal_tim.o
 .text.HAL_TIM_IC_MspInit
                0x0000000000000000        0x4 Drivers/STM32F7xx_HAL_Driver/stm32f7xx_hal_tim.o
 .text.HAL_TIM_IC_Init
                0x0000000000000000      0x14c Drivers/STM32F7xx_HAL_Driver/stm32f7xx_hal_tim.o
 .text.HAL_TIM_IC_MspDeInit
                0x0000000000000000        0x4 Drivers/STM32F7xx_HAL_Driver/stm32f7xx_hal_tim.o
 .text.HAL_TIM_IC_DeInit
                0x0000000000000000       0x3c Drivers/STM32F7xx_HAL_Driver/stm32f7xx_hal_tim.o
 .text.HAL_TIM_IC_Start
                0x0000000000000000       0x28 Drivers/STM32F7xx_HAL_Driver/stm32f7xx_hal_tim.o
 .text.HAL_TIM_IC_Stop
                0x0000000000000000       0x3c Drivers/STM32F7xx_HAL_Driver/stm32f7xx_hal_tim.o
 .text.HAL_TIM_IC_Start_IT
                0x0000000000000000       0x70 Drivers/STM32F7xx_HAL_Driver/stm32f7xx_hal_tim.o
 .text.HAL_TIM_IC_Stop_IT
                0x0000000000000000       0x80 Drivers/STM32F7xx_HAL_Driver/stm32f7xx_hal_tim.o
 .text.HAL_TIM_IC_Start_DMA
                0x0000000000000000       0xf0 Drivers/STM32F7xx_HAL_Driver/stm32f7xx_hal_tim.o
 .text.HAL_TIM_IC_Stop_DMA
                0x0000000000000000       0x88 Drivers/STM32F7xx_HAL_Driver/stm32f7xx_hal_tim.o
 .text.HAL_TIM_OnePulse_MspInit
                0x0000000000000000        0x4 Drivers/STM32F7xx_HAL_Driver/stm32f7xx_hal_tim.o
 .text.HAL_TIM_OnePulse_Init
                0x0000000000000000      0x15c Drivers/STM32F7xx_HAL_Driver/stm32f7xx_hal_tim.o
 .text.HAL_TIM_OnePulse_MspDeInit
                0x0000000000000000        0x4 Drivers/STM32F7xx_HAL_Driver/stm32f7xx_hal_tim.o
 .text.HAL_TIM_OnePulse_DeInit
                0x0000000000000000       0x3c Drivers/STM32F7xx_HAL_Driver/stm32f7xx_hal_tim.o
 .text.HAL_TIM_OnePulse_Start
                0x0000000000000000       0x48 Drivers/STM32F7xx_HAL_Driver/stm32f7xx_hal_tim.o
 .text.HAL_TIM_OnePulse_Stop
                0x0000000000000000       0x6c Drivers/STM32F7xx_HAL_Driver/stm32f7xx_hal_tim.o
 .text.HAL_TIM_OnePulse_Start_IT
                0x0000000000000000       0x58 Drivers/STM32F7xx_HAL_Driver/stm32f7xx_hal_tim.o
 .text.HAL_TIM_OnePulse_Stop_IT
                0x0000000000000000       0x7c Drivers/STM32F7xx_HAL_Driver/stm32f7xx_hal_tim.o
 .text.HAL_TIM_Encoder_MspInit
                0x0000000000000000        0x4 Drivers/STM32F7xx_HAL_Driver/stm32f7xx_hal_tim.o
 .text.HAL_TIM_Encoder_Init
                0x0000000000000000      0x1d0 Drivers/STM32F7xx_HAL_Driver/stm32f7xx_hal_tim.o
 .text.HAL_TIM_Encoder_MspDeInit
                0x0000000000000000        0x4 Drivers/STM32F7xx_HAL_Driver/stm32f7xx_hal_tim.o
 .text.HAL_TIM_Encoder_DeInit
                0x0000000000000000       0x3c Drivers/STM32F7xx_HAL_Driver/stm32f7xx_hal_tim.o
 .text.HAL_TIM_Encoder_Start
                0x0000000000000000       0x4c Drivers/STM32F7xx_HAL_Driver/stm32f7xx_hal_tim.o
 .text.HAL_TIM_Encoder_Stop
                0x0000000000000000       0x54 Drivers/STM32F7xx_HAL_Driver/stm32f7xx_hal_tim.o
 .text.HAL_TIM_Encoder_Start_IT
                0x0000000000000000       0x80 Drivers/STM32F7xx_HAL_Driver/stm32f7xx_hal_tim.o
 .text.HAL_TIM_Encoder_Stop_IT
                0x0000000000000000       0x84 Drivers/STM32F7xx_HAL_Driver/stm32f7xx_hal_tim.o
 .text.HAL_TIM_Encoder_Start_DMA
                0x0000000000000000      0x15c Drivers/STM32F7xx_HAL_Driver/stm32f7xx_hal_tim.o
 .text.HAL_TIM_Encoder_Stop_DMA
                0x0000000000000000       0x84 Drivers/STM32F7xx_HAL_Driver/stm32f7xx_hal_tim.o
 .text.HAL_TIM_OC_ConfigChannel
                0x0000000000000000      0x1b0 Drivers/STM32F7xx_HAL_Driver/stm32f7xx_hal_tim.o
 .text.HAL_TIM_IC_ConfigChannel
                0x0000000000000000      0x19c Drivers/STM32F7xx_HAL_Driver/stm32f7xx_hal_tim.o
 .text.HAL_TIM_PWM_ConfigChannel
                0x0000000000000000      0x214 Drivers/STM32F7xx_HAL_Driver/stm32f7xx_hal_tim.o
 .text.HAL_TIM_OnePulse_ConfigChannel
                0x0000000000000000      0x230 Drivers/STM32F7xx_HAL_Driver/stm32f7xx_hal_tim.o
 .text.HAL_TIM_DMABurst_WriteStart
                0x0000000000000000       0xe4 Drivers/STM32F7xx_HAL_Driver/stm32f7xx_hal_tim.o
 .text.HAL_TIM_DMABurst_WriteStop
                0x0000000000000000       0x78 Drivers/STM32F7xx_HAL_Driver/stm32f7xx_hal_tim.o
 .text.HAL_TIM_DMABurst_ReadStart
                0x0000000000000000       0xe4 Drivers/STM32F7xx_HAL_Driver/stm32f7xx_hal_tim.o
 .text.HAL_TIM_DMABurst_ReadStop
                0x0000000000000000       0x78 Drivers/STM32F7xx_HAL_Driver/stm32f7xx_hal_tim.o
 .text.HAL_TIM_GenerateEvent
                0x0000000000000000       0x2c Drivers/STM32F7xx_HAL_Driver/stm32f7xx_hal_tim.o
 .text.HAL_TIM_ConfigOCrefClear
                0x0000000000000000       0xcc Drivers/STM32F7xx_HAL_Driver/stm32f7xx_hal_tim.o
 .text.HAL_TIM_ConfigTI1Input
                0x0000000000000000       0x10 Drivers/STM32F7xx_HAL_Driver/stm32f7xx_hal_tim.o
 .text.HAL_TIM_SlaveConfigSynchronization
                0x0000000000000000       0xe0 Drivers/STM32F7xx_HAL_Driver/stm32f7xx_hal_tim.o
 .text.HAL_TIM_SlaveConfigSynchronization_IT
                0x0000000000000000       0xf0 Drivers/STM32F7xx_HAL_Driver/stm32f7xx_hal_tim.o
 .text.HAL_TIM_ReadCapturedValue
                0x0000000000000000       0x58 Drivers/STM32F7xx_HAL_Driver/stm32f7xx_hal_tim.o
 .text.HAL_TIM_PeriodElapsedCallback
                0x0000000000000000        0x4 Drivers/STM32F7xx_HAL_Driver/stm32f7xx_hal_tim.o
 .text.TIM_DMAPeriodElapsedCplt
                0x0000000000000000       0x14 Drivers/STM32F7xx_HAL_Driver/stm32f7xx_hal_tim.o
 .text.TIM_DMACaptureCplt
                0x0000000000000000       0x4c Drivers/STM32F7xx_HAL_Driver/stm32f7xx_hal_tim.o
 .text.TIM_DMADelayPulseCplt
                0x0000000000000000       0x4c Drivers/STM32F7xx_HAL_Driver/stm32f7xx_hal_tim.o
 .text.TIM_DMATriggerCplt
                0x0000000000000000       0x14 Drivers/STM32F7xx_HAL_Driver/stm32f7xx_hal_tim.o
 .text.HAL_TIM_ErrorCallback
                0x0000000000000000        0x4 Drivers/STM32F7xx_HAL_Driver/stm32f7xx_hal_tim.o
 .text.TIM_DMAError
                0x0000000000000000       0x14 Drivers/STM32F7xx_HAL_Driver/stm32f7xx_hal_tim.o
 .text.HAL_TIM_Base_GetState
                0x0000000000000000        0x8 Drivers/STM32F7xx_HAL_Driver/stm32f7xx_hal_tim.o
 .text.HAL_TIM_OC_GetState
                0x0000000000000000        0x8 Drivers/STM32F7xx_HAL_Driver/stm32f7xx_hal_tim.o
 .text.HAL_TIM_PWM_GetState
                0x0000000000000000        0x8 Drivers/STM32F7xx_HAL_Driver/stm32f7xx_hal_tim.o
 .text.HAL_TIM_IC_GetState
                0x0000000000000000        0x8 Drivers/STM32F7xx_HAL_Driver/stm32f7xx_hal_tim.o
 .text.HAL_TIM_OnePulse_GetState
                0x0000000000000000        0x8 Drivers/STM32F7xx_HAL_Driver/stm32f7xx_hal_tim.o
 .text.HAL_TIM_Encoder_GetState
                0x0000000000000000        0x8 Drivers/STM32F7xx_HAL_Driver/stm32f7xx_hal_tim.o
 .text.TIM_Base_SetConfig
                0x0000000000000000      0x11c Drivers/STM32F7xx_HAL_Driver/stm32f7xx_hal_tim.o
 .text.TIM_TI1_SetConfig
                0x0000000000000000       0x78 Drivers/STM32F7xx_HAL_Driver/stm32f7xx_hal_tim.o
 .text.TIM_ETR_SetConfig
                0x0000000000000000       0x14 Drivers/STM32F7xx_HAL_Driver/stm32f7xx_hal_tim.o
 .text.TIM_CCxChannelCmd
                0x0000000000000000       0x1c Drivers/STM32F7xx_HAL_Driver/stm32f7xx_hal_tim.o
 .text          0x0000000000000000        0x0 Drivers/STM32F7xx_HAL_Driver/stm32f7xx_hal_tim_ex.o
 .data          0x0000000000000000        0x0 Drivers/STM32F7xx_HAL_Driver/stm32f7xx_hal_tim_ex.o
 .bss           0x0000000000000000        0x0 Drivers/STM32F7xx_HAL_Driver/stm32f7xx_hal_tim_ex.o
 .text.HAL_TIMEx_HallSensor_MspInit
                0x0000000000000000        0x4 Drivers/STM32F7xx_HAL_Driver/stm32f7xx_hal_tim_ex.o
 .text.HAL_TIMEx_HallSensor_Init
                0x0000000000000000       0xac Drivers/STM32F7xx_HAL_Driver/stm32f7xx_hal_tim_ex.o
 .text.HAL_TIMEx_HallSensor_MspDeInit
                0x0000000000000000        0x4 Drivers/STM32F7xx_HAL_Driver/stm32f7xx_hal_tim_ex.o
 .text.HAL_TIMEx_HallSensor_DeInit
                0x0000000000000000       0x3c Drivers/STM32F7xx_HAL_Driver/stm32f7xx_hal_tim_ex.o
 .text.HAL_TIMEx_HallSensor_Start
                0x0000000000000000       0x1c Drivers/STM32F7xx_HAL_Driver/stm32f7xx_hal_tim_ex.o
 .text.HAL_TIMEx_HallSensor_Stop
                0x0000000000000000       0x30 Drivers/STM32F7xx_HAL_Driver/stm32f7xx_hal_tim_ex.o
 .text.HAL_TIMEx_HallSensor_Start_IT
                0x0000000000000000       0x28 Drivers/STM32F7xx_HAL_Driver/stm32f7xx_hal_tim_ex.o
 .text.HAL_TIMEx_HallSensor_Stop_IT
                0x0000000000000000       0x38 Drivers/STM32F7xx_HAL_Driver/stm32f7xx_hal_tim_ex.o
 .text.HAL_TIMEx_HallSensor_Start_DMA
                0x0000000000000000       0x74 Drivers/STM32F7xx_HAL_Driver/stm32f7xx_hal_tim_ex.o
 .text.HAL_TIMEx_HallSensor_Stop_DMA
                0x0000000000000000       0x38 Drivers/STM32F7xx_HAL_Driver/stm32f7xx_hal_tim_ex.o
 .text.HAL_TIMEx_OCN_Start
                0x0000000000000000       0x30 Drivers/STM32F7xx_HAL_Driver/stm32f7xx_hal_tim_ex.o
 .text.HAL_TIMEx_OCN_Stop
                0x0000000000000000       0x58 Drivers/STM32F7xx_HAL_Driver/stm32f7xx_hal_tim_ex.o
 .text.HAL_TIMEx_OCN_Start_IT
                0x0000000000000000       0x80 Drivers/STM32F7xx_HAL_Driver/stm32f7xx_hal_tim_ex.o
 .text.HAL_TIMEx_OCN_Stop_IT
                0x0000000000000000       0xb0 Drivers/STM32F7xx_HAL_Driver/stm32f7xx_hal_tim_ex.o
 .text.HAL_TIMEx_OCN_Start_DMA
                0x0000000000000000      0x110 Drivers/STM32F7xx_HAL_Driver/stm32f7xx_hal_tim_ex.o
 .text.HAL_TIMEx_OCN_Stop_DMA
                0x0000000000000000       0xa4 Drivers/STM32F7xx_HAL_Driver/stm32f7xx_hal_tim_ex.o
 .text.HAL_TIMEx_PWMN_Stop
                0x0000000000000000       0x58 Drivers/STM32F7xx_HAL_Driver/stm32f7xx_hal_tim_ex.o
 .text.HAL_TIMEx_PWMN_Start_IT
                0x0000000000000000       0x80 Drivers/STM32F7xx_HAL_Driver/stm32f7xx_hal_tim_ex.o
 .text.HAL_TIMEx_PWMN_Stop_IT
                0x0000000000000000       0xb0 Drivers/STM32F7xx_HAL_Driver/stm32f7xx_hal_tim_ex.o
 .text.HAL_TIMEx_PWMN_Start_DMA
                0x0000000000000000      0x110 Drivers/STM32F7xx_HAL_Driver/stm32f7xx_hal_tim_ex.o
 .text.HAL_TIMEx_PWMN_Stop_DMA
                0x0000000000000000       0xa4 Drivers/STM32F7xx_HAL_Driver/stm32f7xx_hal_tim_ex.o
 .text.HAL_TIMEx_OnePulseN_Start
                0x0000000000000000       0x28 Drivers/STM32F7xx_HAL_Driver/stm32f7xx_hal_tim_ex.o
 .text.HAL_TIMEx_OnePulseN_Stop
                0x0000000000000000       0x58 Drivers/STM32F7xx_HAL_Driver/stm32f7xx_hal_tim_ex.o
 .text.HAL_TIMEx_OnePulseN_Start_IT
                0x0000000000000000       0x38 Drivers/STM32F7xx_HAL_Driver/stm32f7xx_hal_tim_ex.o
 .text.HAL_TIMEx_OnePulseN_Stop_IT
                0x0000000000000000       0x68 Drivers/STM32F7xx_HAL_Driver/stm32f7xx_hal_tim_ex.o
 .text.HAL_TIMEx_ConfigCommutationEvent
                0x0000000000000000       0x54 Drivers/STM32F7xx_HAL_Driver/stm32f7xx_hal_tim_ex.o
 .text.HAL_TIMEx_ConfigCommutationEvent_IT
                0x0000000000000000       0x5c Drivers/STM32F7xx_HAL_Driver/stm32f7xx_hal_tim_ex.o
 .text.HAL_TIMEx_ConfigCommutationEvent_DMA
                0x0000000000000000       0x70 Drivers/STM32F7xx_HAL_Driver/stm32f7xx_hal_tim_ex.o
 .text.HAL_TIMEx_ConfigBreakInput
                0x0000000000000000       0xc0 Drivers/STM32F7xx_HAL_Driver/stm32f7xx_hal_tim_ex.o
 .text.HAL_TIMEx_RemapConfig
                0x0000000000000000       0x28 Drivers/STM32F7xx_HAL_Driver/stm32f7xx_hal_tim_ex.o
 .text.HAL_TIMEx_GroupChannel5
                0x0000000000000000       0x38 Drivers/STM32F7xx_HAL_Driver/stm32f7xx_hal_tim_ex.o
 .text.TIMEx_DMACommutationCplt
                0x0000000000000000       0x14 Drivers/STM32F7xx_HAL_Driver/stm32f7xx_hal_tim_ex.o
 .text.HAL_TIMEx_HallSensor_GetState
                0x0000000000000000        0x8 Drivers/STM32F7xx_HAL_Driver/stm32f7xx_hal_tim_ex.o
 .text.HAL_TIM_ConfigOCrefClear
                0x0000000000000000      0x100 Drivers/STM32F7xx_HAL_Driver/stm32f7xx_hal_tim_ex.o
 .text.HAL_TIM_OC_ConfigChannel
                0x0000000000000000      0x110 Drivers/STM32F7xx_HAL_Driver/stm32f7xx_hal_tim_ex.o
 .text          0x0000000000000000        0x0 Drivers/STM32F7xx_HAL_Driver/stm32f7xx_hal_uart.o
 .data          0x0000000000000000        0x0 Drivers/STM32F7xx_HAL_Driver/stm32f7xx_hal_uart.o
 .bss           0x0000000000000000        0x0 Drivers/STM32F7xx_HAL_Driver/stm32f7xx_hal_uart.o
 .text.HAL_UART_MspInit
                0x0000000000000000        0x4 Drivers/STM32F7xx_HAL_Driver/stm32f7xx_hal_uart.o
 .text.HAL_UART_MspDeInit
                0x0000000000000000        0x4 Drivers/STM32F7xx_HAL_Driver/stm32f7xx_hal_uart.o
 .text.HAL_UART_DeInit
                0x0000000000000000       0x38 Drivers/STM32F7xx_HAL_Driver/stm32f7xx_hal_uart.o
 .text.HAL_UART_Receive
                0x0000000000000000      0x130 Drivers/STM32F7xx_HAL_Driver/stm32f7xx_hal_uart.o
 .text.HAL_UART_Transmit_IT
                0x0000000000000000       0x54 Drivers/STM32F7xx_HAL_Driver/stm32f7xx_hal_uart.o
 .text.HAL_UART_Receive_IT
                0x0000000000000000       0x98 Drivers/STM32F7xx_HAL_Driver/stm32f7xx_hal_uart.o
 .text.HAL_UART_Transmit_DMA
                0x0000000000000000       0x80 Drivers/STM32F7xx_HAL_Driver/stm32f7xx_hal_uart.o
 .text.HAL_UART_DMAPause
                0x0000000000000000       0x60 Drivers/STM32F7xx_HAL_Driver/stm32f7xx_hal_uart.o
 .text.HAL_UART_DMAStop
                0x0000000000000000       0x78 Drivers/STM32F7xx_HAL_Driver/stm32f7xx_hal_uart.o
 .text.UART_WaitOnFlagUntilTimeout
                0x0000000000000000       0x74 Drivers/STM32F7xx_HAL_Driver/stm32f7xx_hal_uart.o
 .text.HAL_UART_TxCpltCallback
                0x0000000000000000        0x4 Drivers/STM32F7xx_HAL_Driver/stm32f7xx_hal_uart.o
 .text.UART_DMATransmitCplt
                0x0000000000000000       0x2c Drivers/STM32F7xx_HAL_Driver/stm32f7xx_hal_uart.o
 .text.HAL_UART_TxHalfCpltCallback
                0x0000000000000000        0x4 Drivers/STM32F7xx_HAL_Driver/stm32f7xx_hal_uart.o
 .text.UART_DMATxHalfCplt
                0x0000000000000000        0xc Drivers/STM32F7xx_HAL_Driver/stm32f7xx_hal_uart.o
 .text.HAL_UART_RxCpltCallback
                0x0000000000000000        0x4 Drivers/STM32F7xx_HAL_Driver/stm32f7xx_hal_uart.o
 .text.HAL_UART_ErrorCallback
                0x0000000000000000        0x4 Drivers/STM32F7xx_HAL_Driver/stm32f7xx_hal_uart.o
 .text.HAL_UART_IRQHandler
                0x0000000000000000      0x28c Drivers/STM32F7xx_HAL_Driver/stm32f7xx_hal_uart.o
 .text.UART_DMAAbortOnError
                0x0000000000000000       0x18 Drivers/STM32F7xx_HAL_Driver/stm32f7xx_hal_uart.o
 .text.HAL_MultiProcessor_EnableMuteMode
                0x0000000000000000       0x90 Drivers/STM32F7xx_HAL_Driver/stm32f7xx_hal_uart.o
 .text.HAL_MultiProcessor_DisableMuteMode
                0x0000000000000000       0x90 Drivers/STM32F7xx_HAL_Driver/stm32f7xx_hal_uart.o
 .text.HAL_MultiProcessor_EnterMuteMode
                0x0000000000000000        0xc Drivers/STM32F7xx_HAL_Driver/stm32f7xx_hal_uart.o
 .text.HAL_UART_GetState
                0x0000000000000000        0xc Drivers/STM32F7xx_HAL_Driver/stm32f7xx_hal_uart.o
 .text.HAL_UART_GetError
                0x0000000000000000        0x4 Drivers/STM32F7xx_HAL_Driver/stm32f7xx_hal_uart.o
 .text.UART_SetConfig
                0x0000000000000000      0x2e4 Drivers/STM32F7xx_HAL_Driver/stm32f7xx_hal_uart.o
 .text.HAL_HalfDuplex_Init
                0x0000000000000000      0x390 Drivers/STM32F7xx_HAL_Driver/stm32f7xx_hal_uart.o
 .text.HAL_LIN_Init
                0x0000000000000000      0x39c Drivers/STM32F7xx_HAL_Driver/stm32f7xx_hal_uart.o
 .text.HAL_MultiProcessor_Init
                0x0000000000000000      0x3ac Drivers/STM32F7xx_HAL_Driver/stm32f7xx_hal_uart.o
 .text.HAL_RS485Ex_Init
                0x0000000000000000      0x3b0 Drivers/STM32F7xx_HAL_Driver/stm32f7xx_hal_uart.o
 .text.UART_CheckIdleState
                0x0000000000000000       0x68 Drivers/STM32F7xx_HAL_Driver/stm32f7xx_hal_uart.o
 .text.HAL_HalfDuplex_EnableTransmitter
                0x0000000000000000       0x3c Drivers/STM32F7xx_HAL_Driver/stm32f7xx_hal_uart.o
 .text.HAL_HalfDuplex_EnableReceiver
                0x0000000000000000       0x3c Drivers/STM32F7xx_HAL_Driver/stm32f7xx_hal_uart.o
 .text.HAL_LIN_SendBreak
                0x0000000000000000       0x34 Drivers/STM32F7xx_HAL_Driver/stm32f7xx_hal_uart.o
 .text.HAL_MultiProcessorEx_AddressLength_Set
                0x0000000000000000       0x90 Drivers/STM32F7xx_HAL_Driver/stm32f7xx_hal_uart.o
 .text          0x0000000000000000        0x0 Drivers/STM32F7xx_HAL_Driver/stm32f7xx_ll_usb.o
 .data          0x0000000000000000        0x0 Drivers/STM32F7xx_HAL_Driver/stm32f7xx_ll_usb.o
 .bss           0x0000000000000000        0x0 Drivers/STM32F7xx_HAL_Driver/stm32f7xx_ll_usb.o
 .text.USB_EnableGlobalInt
                0x0000000000000000       0x10 Drivers/STM32F7xx_HAL_Driver/stm32f7xx_ll_usb.o
 .text.USB_FlushTxFifo
                0x0000000000000000       0x24 Drivers/STM32F7xx_HAL_Driver/stm32f7xx_ll_usb.o
 .text.USB_FlushRxFifo
                0x0000000000000000       0x20 Drivers/STM32F7xx_HAL_Driver/stm32f7xx_ll_usb.o
 .text.USB_SetDevSpeed
                0x0000000000000000       0x10 Drivers/STM32F7xx_HAL_Driver/stm32f7xx_ll_usb.o
 .text.USB_GetDevSpeed
                0x0000000000000000       0x38 Drivers/STM32F7xx_HAL_Driver/stm32f7xx_ll_usb.o
 .text.USB_ActivateEndpoint
                0x0000000000000000       0x88 Drivers/STM32F7xx_HAL_Driver/stm32f7xx_ll_usb.o
 .text.USB_ActivateDedicatedEndpoint
                0x0000000000000000       0xb8 Drivers/STM32F7xx_HAL_Driver/stm32f7xx_ll_usb.o
 .text.USB_DeactivateEndpoint
                0x0000000000000000       0x50 Drivers/STM32F7xx_HAL_Driver/stm32f7xx_ll_usb.o
 .text.USB_DeactivateDedicatedEndpoint
                0x0000000000000000       0x54 Drivers/STM32F7xx_HAL_Driver/stm32f7xx_ll_usb.o
 .text.USB_EPStartXfer
                0x0000000000000000      0x1c8 Drivers/STM32F7xx_HAL_Driver/stm32f7xx_ll_usb.o
 .text.USB_EP0StartXfer
                0x0000000000000000      0x108 Drivers/STM32F7xx_HAL_Driver/stm32f7xx_ll_usb.o
 .text.USB_WritePacket
                0x0000000000000000       0x2c Drivers/STM32F7xx_HAL_Driver/stm32f7xx_ll_usb.o
 .text.USB_ReadPacket
                0x0000000000000000       0x2c Drivers/STM32F7xx_HAL_Driver/stm32f7xx_ll_usb.o
 .text.USB_EPSetStall
                0x0000000000000000       0x3c Drivers/STM32F7xx_HAL_Driver/stm32f7xx_ll_usb.o
 .text.USB_EPClearStall
                0x0000000000000000       0x30 Drivers/STM32F7xx_HAL_Driver/stm32f7xx_ll_usb.o
 .text.USB_StopDevice
                0x0000000000000000       0xc4 Drivers/STM32F7xx_HAL_Driver/stm32f7xx_ll_usb.o
 .text.USB_SetDevAddress
                0x0000000000000000       0x24 Drivers/STM32F7xx_HAL_Driver/stm32f7xx_ll_usb.o
 .text.USB_DevConnect
                0x0000000000000000       0x18 Drivers/STM32F7xx_HAL_Driver/stm32f7xx_ll_usb.o
 .text.USB_ReadInterrupts
                0x0000000000000000        0x8 Drivers/STM32F7xx_HAL_Driver/stm32f7xx_ll_usb.o
 .text.USB_ReadDevAllOutEpInterrupt
                0x0000000000000000       0x10 Drivers/STM32F7xx_HAL_Driver/stm32f7xx_ll_usb.o
 .text.USB_ReadDevAllInEpInterrupt
                0x0000000000000000       0x10 Drivers/STM32F7xx_HAL_Driver/stm32f7xx_ll_usb.o
 .text.USB_ReadDevOutEPInterrupt
                0x0000000000000000       0x14 Drivers/STM32F7xx_HAL_Driver/stm32f7xx_ll_usb.o
 .text.USB_ReadDevInEPInterrupt
                0x0000000000000000       0x24 Drivers/STM32F7xx_HAL_Driver/stm32f7xx_ll_usb.o
 .text.USB_ClearInterrupts
                0x0000000000000000        0x8 Drivers/STM32F7xx_HAL_Driver/stm32f7xx_ll_usb.o
 .text.USB_GetMode
                0x0000000000000000        0x8 Drivers/STM32F7xx_HAL_Driver/stm32f7xx_ll_usb.o
 .text.USB_ActivateSetup
                0x0000000000000000       0x38 Drivers/STM32F7xx_HAL_Driver/stm32f7xx_ll_usb.o
 .text.USB_EP0_OutStart
                0x0000000000000000       0x44 Drivers/STM32F7xx_HAL_Driver/stm32f7xx_ll_usb.o
 .text.USB_HostInit
                0x0000000000000000      0x110 Drivers/STM32F7xx_HAL_Driver/stm32f7xx_ll_usb.o
 .text.USB_InitFSLSPClkSel
                0x0000000000000000       0x50 Drivers/STM32F7xx_HAL_Driver/stm32f7xx_ll_usb.o
 .text.USB_ResetPort
                0x0000000000000000       0x3c Drivers/STM32F7xx_HAL_Driver/stm32f7xx_ll_usb.o
 .text.USB_DriveVbus
                0x0000000000000000       0x40 Drivers/STM32F7xx_HAL_Driver/stm32f7xx_ll_usb.o
 .text.USB_GetHostSpeed
                0x0000000000000000       0x14 Drivers/STM32F7xx_HAL_Driver/stm32f7xx_ll_usb.o
 .text.USB_GetCurrentFrame
                0x0000000000000000        0xc Drivers/STM32F7xx_HAL_Driver/stm32f7xx_ll_usb.o
 .text.USB_HC_Init
                0x0000000000000000      0x10c Drivers/STM32F7xx_HAL_Driver/stm32f7xx_ll_usb.o
 .text.USB_HC_StartXfer
                0x0000000000000000      0x188 Drivers/STM32F7xx_HAL_Driver/stm32f7xx_ll_usb.o
 .text.USB_HC_ReadInterrupt
                0x0000000000000000        0xc Drivers/STM32F7xx_HAL_Driver/stm32f7xx_ll_usb.o
 .text.USB_HC_Halt
                0x0000000000000000       0xa0 Drivers/STM32F7xx_HAL_Driver/stm32f7xx_ll_usb.o
 .text.USB_DoPing
                0x0000000000000000       0x20 Drivers/STM32F7xx_HAL_Driver/stm32f7xx_ll_usb.o
 .text.USB_StopHost
                0x0000000000000000      0x17c Drivers/STM32F7xx_HAL_Driver/stm32f7xx_ll_usb.o
 .bss.debug.10210
                0x0000000000000000        0x4 Drivers/STM32F7xx_HAL_Driver/stm32f7xx_ll_usb.o
 .bss.tmpreg.10371
                0x0000000000000000        0x4 Drivers/STM32F7xx_HAL_Driver/stm32f7xx_ll_usb.o
 .text          0x0000000000000000        0x0 Middlewares/FreeRTOS/cmsis_os.o
 .data          0x0000000000000000        0x0 Middlewares/FreeRTOS/cmsis_os.o
 .bss           0x0000000000000000        0x0 Middlewares/FreeRTOS/cmsis_os.o
 .text.osKernelRunning
                0x0000000000000000       0x10 Middlewares/FreeRTOS/cmsis_os.o
 .text.osKernelSysTick
                0x0000000000000000       0x10 Middlewares/FreeRTOS/cmsis_os.o
 .text.osThreadGetId
                0x0000000000000000        0x4 Middlewares/FreeRTOS/cmsis_os.o
 .text.osThreadTerminate
                0x0000000000000000        0xc Middlewares/FreeRTOS/cmsis_os.o
 .text.osThreadYield
                0x0000000000000000       0x18 Middlewares/FreeRTOS/cmsis_os.o
 .text.osThreadSetPriority
                0x0000000000000000       0x14 Middlewares/FreeRTOS/cmsis_os.o
 .text.osThreadGetPriority
                0x0000000000000000       0x24 Middlewares/FreeRTOS/cmsis_os.o
 .text.osTimerCreate
                0x0000000000000000        0x4 Middlewares/FreeRTOS/cmsis_os.o
 .text.osTimerStart
                0x0000000000000000        0x4 Middlewares/FreeRTOS/cmsis_os.o
 .text.osTimerStop
                0x0000000000000000        0x4 Middlewares/FreeRTOS/cmsis_os.o
 .text.osTimerDelete
                0x0000000000000000        0x4 Middlewares/FreeRTOS/cmsis_os.o
 .text.osSignalSet
                0x0000000000000000       0x50 Middlewares/FreeRTOS/cmsis_os.o
 .text.osSignalWait
                0x0000000000000000       0x4c Middlewares/FreeRTOS/cmsis_os.o
 .text.osMutexWait
                0x0000000000000000       0x54 Middlewares/FreeRTOS/cmsis_os.o
 .text.osMutexRelease
                0x0000000000000000       0x50 Middlewares/FreeRTOS/cmsis_os.o
 .text.osMutexDelete
                0x0000000000000000       0x14 Middlewares/FreeRTOS/cmsis_os.o
 .text.osSemaphoreCreate
                0x0000000000000000       0x28 Middlewares/FreeRTOS/cmsis_os.o
 .text.osSemaphoreWait
                0x0000000000000000       0x54 Middlewares/FreeRTOS/cmsis_os.o
 .text.osSemaphoreRelease
                0x0000000000000000       0x50 Middlewares/FreeRTOS/cmsis_os.o
 .text.osSemaphoreDelete
                0x0000000000000000       0x14 Middlewares/FreeRTOS/cmsis_os.o
 .text.osPoolCreate
                0x0000000000000000       0x6c Middlewares/FreeRTOS/cmsis_os.o
 .text.osPoolAlloc
                0x0000000000000000       0x90 Middlewares/FreeRTOS/cmsis_os.o
 .text.osPoolCAlloc
                0x0000000000000000       0x94 Middlewares/FreeRTOS/cmsis_os.o
 .text.osPoolFree
                0x0000000000000000       0x2c Middlewares/FreeRTOS/cmsis_os.o
 .text.osMessagePut
                0x0000000000000000       0x58 Middlewares/FreeRTOS/cmsis_os.o
 .text.osMessageGet
                0x0000000000000000       0x8c Middlewares/FreeRTOS/cmsis_os.o
 .text.osMailCreate
                0x0000000000000000       0xc4 Middlewares/FreeRTOS/cmsis_os.o
 .text.osMailAlloc
                0x0000000000000000       0x8c Middlewares/FreeRTOS/cmsis_os.o
 .text.osMailCAlloc
                0x0000000000000000       0xb8 Middlewares/FreeRTOS/cmsis_os.o
 .text.osMailPut
                0x0000000000000000       0x5c Middlewares/FreeRTOS/cmsis_os.o
 .text.osMailGet
                0x0000000000000000       0x8c Middlewares/FreeRTOS/cmsis_os.o
 .text.osMailFree
                0x0000000000000000       0x38 Middlewares/FreeRTOS/cmsis_os.o
 .text.osThreadSuspend
                0x0000000000000000        0xc Middlewares/FreeRTOS/cmsis_os.o
 .text.osThreadResume
                0x0000000000000000       0x34 Middlewares/FreeRTOS/cmsis_os.o
 .text.osThreadSuspendAll
                0x0000000000000000        0xc Middlewares/FreeRTOS/cmsis_os.o
 .text.osThreadResumeAll
                0x0000000000000000       0x10 Middlewares/FreeRTOS/cmsis_os.o
 .text.osDelayUntil
                0x0000000000000000        0x4 Middlewares/FreeRTOS/cmsis_os.o
 .text.osAbortDelay
                0x0000000000000000        0x4 Middlewares/FreeRTOS/cmsis_os.o
 .text.osThreadList
                0x0000000000000000        0x4 Middlewares/FreeRTOS/cmsis_os.o
 .text.osMessagePeek
                0x0000000000000000       0x60 Middlewares/FreeRTOS/cmsis_os.o
 .text.osMessageWaiting
                0x0000000000000000       0x10 Middlewares/FreeRTOS/cmsis_os.o
 .text.osMessageAvailableSpace
                0x0000000000000000        0x4 Middlewares/FreeRTOS/cmsis_os.o
 .text.osMessageDelete
                0x0000000000000000       0x14 Middlewares/FreeRTOS/cmsis_os.o
 .text.osRecursiveMutexCreate
                0x0000000000000000        0x4 Middlewares/FreeRTOS/cmsis_os.o
 .text.osRecursiveMutexRelease
                0x0000000000000000        0x4 Middlewares/FreeRTOS/cmsis_os.o
 .text.osRecursiveMutexWait
                0x0000000000000000        0x4 Middlewares/FreeRTOS/cmsis_os.o
 .text.osSemaphoreGetCount
                0x0000000000000000        0x4 Middlewares/FreeRTOS/cmsis_os.o
 .text          0x0000000000000000        0x0 Middlewares/FreeRTOS/croutine.o
 .data          0x0000000000000000        0x0 Middlewares/FreeRTOS/croutine.o
 .bss           0x0000000000000000        0x0 Middlewares/FreeRTOS/croutine.o
 .debug_info    0x0000000000000000       0x9a Middlewares/FreeRTOS/croutine.o
 .debug_abbrev  0x0000000000000000       0x44 Middlewares/FreeRTOS/croutine.o
 .debug_aranges
                0x0000000000000000       0x18 Middlewares/FreeRTOS/croutine.o
 .debug_line    0x0000000000000000       0xe5 Middlewares/FreeRTOS/croutine.o
 .debug_str     0x0000000000000000      0x20a Middlewares/FreeRTOS/croutine.o
 .comment       0x0000000000000000       0x7d Middlewares/FreeRTOS/croutine.o
 .ARM.attributes
                0x0000000000000000       0x33 Middlewares/FreeRTOS/croutine.o
 .text          0x0000000000000000        0x0 Middlewares/FreeRTOS/event_groups.o
 .data          0x0000000000000000        0x0 Middlewares/FreeRTOS/event_groups.o
 .bss           0x0000000000000000        0x0 Middlewares/FreeRTOS/event_groups.o
 .text.unlikely.xEventGroupSetBits.part.0
                0x0000000000000000       0x58 Middlewares/FreeRTOS/event_groups.o
 .text.xEventGroupCreate
                0x0000000000000000       0x1c Middlewares/FreeRTOS/event_groups.o
 .text.xEventGroupWaitBits
                0x0000000000000000      0x124 Middlewares/FreeRTOS/event_groups.o
 .text.xEventGroupClearBits
                0x0000000000000000       0x50 Middlewares/FreeRTOS/event_groups.o
 .text.xEventGroupGetBitsFromISR
                0x0000000000000000       0x20 Middlewares/FreeRTOS/event_groups.o
 .text.xEventGroupSetBits
                0x0000000000000000       0x38 Middlewares/FreeRTOS/event_groups.o
 .text.xEventGroupSync
                0x0000000000000000       0xdc Middlewares/FreeRTOS/event_groups.o
 .text.vEventGroupDelete
                0x0000000000000000       0x50 Middlewares/FreeRTOS/event_groups.o
 .text.vEventGroupSetBitsCallback
                0x0000000000000000       0x38 Middlewares/FreeRTOS/event_groups.o
 .text.vEventGroupClearBitsCallback
                0x0000000000000000       0x50 Middlewares/FreeRTOS/event_groups.o
 .debug_info    0x0000000000000000     0x14d7 Middlewares/FreeRTOS/event_groups.o
 .debug_abbrev  0x0000000000000000      0x387 Middlewares/FreeRTOS/event_groups.o
 .debug_loc     0x0000000000000000      0x91e Middlewares/FreeRTOS/event_groups.o
 .debug_aranges
                0x0000000000000000       0x68 Middlewares/FreeRTOS/event_groups.o
 .debug_ranges  0x0000000000000000       0xb8 Middlewares/FreeRTOS/event_groups.o
 .debug_line    0x0000000000000000      0x4b8 Middlewares/FreeRTOS/event_groups.o
 .debug_str     0x0000000000000000      0xacc Middlewares/FreeRTOS/event_groups.o
 .comment       0x0000000000000000       0x7d Middlewares/FreeRTOS/event_groups.o
 .debug_frame   0x0000000000000000      0x130 Middlewares/FreeRTOS/event_groups.o
 .ARM.attributes
                0x0000000000000000       0x33 Middlewares/FreeRTOS/event_groups.o
 .text          0x0000000000000000        0x0 Middlewares/FreeRTOS/heap_4.o
 .data          0x0000000000000000        0x0 Middlewares/FreeRTOS/heap_4.o
 .bss           0x0000000000000000        0x0 Middlewares/FreeRTOS/heap_4.o
 .text.xPortGetFreeHeapSize
                0x0000000000000000        0xc Middlewares/FreeRTOS/heap_4.o
 .text.xPortGetMinimumEverFreeHeapSize
                0x0000000000000000        0xc Middlewares/FreeRTOS/heap_4.o
 .text.vPortInitialiseBlocks
                0x0000000000000000        0x4 Middlewares/FreeRTOS/heap_4.o
 .text          0x0000000000000000        0x0 Middlewares/FreeRTOS/list.o
 .data          0x0000000000000000        0x0 Middlewares/FreeRTOS/list.o
 .bss           0x0000000000000000        0x0 Middlewares/FreeRTOS/list.o
 .text          0x0000000000000000        0x0 Middlewares/FreeRTOS/port.o
 .data          0x0000000000000000        0x0 Middlewares/FreeRTOS/port.o
 .bss           0x0000000000000000        0x0 Middlewares/FreeRTOS/port.o
 .text.vPortEndScheduler
                0x0000000000000000       0x28 Middlewares/FreeRTOS/port.o
 .text          0x0000000000000000        0x0 Middlewares/FreeRTOS/queue.o
 .data          0x0000000000000000        0x0 Middlewares/FreeRTOS/queue.o
 .bss           0x0000000000000000        0x0 Middlewares/FreeRTOS/queue.o
 .text.xQueueGenericReset
                0x0000000000000000       0x94 Middlewares/FreeRTOS/queue.o
 .text.xQueueGiveFromISR
                0x0000000000000000       0xc0 Middlewares/FreeRTOS/queue.o
 .text.xQueueReceiveFromISR
                0x0000000000000000       0xb0 Middlewares/FreeRTOS/queue.o
 .text.xQueuePeekFromISR
                0x0000000000000000       0x8c Middlewares/FreeRTOS/queue.o
 .text.uxQueueMessagesWaiting
                0x0000000000000000       0x2c Middlewares/FreeRTOS/queue.o
 .text.uxQueueSpacesAvailable
                0x0000000000000000       0x30 Middlewares/FreeRTOS/queue.o
 .text.uxQueueMessagesWaitingFromISR
                0x0000000000000000       0x1c Middlewares/FreeRTOS/queue.o
 .text.vQueueDelete
                0x0000000000000000       0x88 Middlewares/FreeRTOS/queue.o
 .text.xQueueIsQueueEmptyFromISR
                0x0000000000000000       0x24 Middlewares/FreeRTOS/queue.o
 .text.xQueueIsQueueFullFromISR
                0x0000000000000000       0x28 Middlewares/FreeRTOS/queue.o
 .text.vQueueAddToRegistry
                0x0000000000000000       0x54 Middlewares/FreeRTOS/queue.o
 .text.pcQueueGetName
                0x0000000000000000       0x60 Middlewares/FreeRTOS/queue.o
 .text.vQueueUnregisterQueue
                0x0000000000000000       0x64 Middlewares/FreeRTOS/queue.o
 COMMON         0x0000000000000000       0x40 Middlewares/FreeRTOS/queue.o
 .text          0x0000000000000000        0x0 Middlewares/FreeRTOS/tasks.o
 .data          0x0000000000000000        0x0 Middlewares/FreeRTOS/tasks.o
 .bss           0x0000000000000000        0x0 Middlewares/FreeRTOS/tasks.o
 .text.vTaskDelete
                0x0000000000000000      0x10c Middlewares/FreeRTOS/tasks.o
 .text.uxTaskPriorityGet
                0x0000000000000000       0x28 Middlewares/FreeRTOS/tasks.o
 .text.uxTaskPriorityGetFromISR
                0x0000000000000000       0x3c Middlewares/FreeRTOS/tasks.o
 .text.vTaskPrioritySet
                0x0000000000000000       0xe0 Middlewares/FreeRTOS/tasks.o
 .text.vTaskSuspend
                0x0000000000000000      0x158 Middlewares/FreeRTOS/tasks.o
 .text.vTaskResume
                0x0000000000000000       0xa8 Middlewares/FreeRTOS/tasks.o
 .text.xTaskResumeFromISR
                0x0000000000000000       0xc4 Middlewares/FreeRTOS/tasks.o
 .text.vTaskEndScheduler
                0x0000000000000000       0x24 Middlewares/FreeRTOS/tasks.o
 .text.xTaskGetTickCount
                0x0000000000000000        0xc Middlewares/FreeRTOS/tasks.o
 .text.xTaskGetTickCountFromISR
                0x0000000000000000       0x10 Middlewares/FreeRTOS/tasks.o
 .text.uxTaskGetNumberOfTasks
                0x0000000000000000        0xc Middlewares/FreeRTOS/tasks.o
 .text.pcTaskGetName
                0x0000000000000000       0x28 Middlewares/FreeRTOS/tasks.o
 .text.vTaskPlaceOnUnorderedEventList
                0x0000000000000000       0x60 Middlewares/FreeRTOS/tasks.o
 .text.xTaskRemoveFromUnorderedEventList
                0x0000000000000000       0x98 Middlewares/FreeRTOS/tasks.o
 .text.xTaskGetCurrentTaskHandle
                0x0000000000000000        0xc Middlewares/FreeRTOS/tasks.o
 .text.uxTaskResetEventItemValue
                0x0000000000000000       0x18 Middlewares/FreeRTOS/tasks.o
 .text.ulTaskNotifyTake
                0x0000000000000000       0xdc Middlewares/FreeRTOS/tasks.o
 .text.xTaskNotifyWait
                0x0000000000000000      0x100 Middlewares/FreeRTOS/tasks.o
 .text.xTaskGenericNotify
                0x0000000000000000       0xe8 Middlewares/FreeRTOS/tasks.o
 .text.xTaskGenericNotifyFromISR
                0x0000000000000000      0x134 Middlewares/FreeRTOS/tasks.o
 .text.vTaskNotifyGiveFromISR
                0x0000000000000000       0xf4 Middlewares/FreeRTOS/tasks.o
 .text.xTaskNotifyStateClear
                0x0000000000000000       0x38 Middlewares/FreeRTOS/tasks.o
 .text          0x0000000000000000        0x0 Middlewares/FreeRTOS/timers.o
 .data          0x0000000000000000        0x0 Middlewares/FreeRTOS/timers.o
 .bss           0x0000000000000000        0x0 Middlewares/FreeRTOS/timers.o
 .debug_info    0x0000000000000000      0x8b0 Middlewares/FreeRTOS/timers.o
 .debug_abbrev  0x0000000000000000      0x155 Middlewares/FreeRTOS/timers.o
 .debug_aranges
                0x0000000000000000       0x18 Middlewares/FreeRTOS/timers.o
 .debug_line    0x0000000000000000      0x1a6 Middlewares/FreeRTOS/timers.o
 .debug_str     0x0000000000000000      0x62e Middlewares/FreeRTOS/timers.o
 .comment       0x0000000000000000       0x7d Middlewares/FreeRTOS/timers.o
 .ARM.attributes
                0x0000000000000000       0x33 Middlewares/FreeRTOS/timers.o
 .text          0x0000000000000000        0x0 /home/chen/IDEs/TrueStudio/ARMTools/bin/../lib/gcc/arm-atollic-eabi/6.3.1/../../../../arm-atollic-eabi/lib/armv7e-m/fpu/fpv5-d16/libm.a(lib_a-s_cos.o)
 .data          0x0000000000000000        0x0 /home/chen/IDEs/TrueStudio/ARMTools/bin/../lib/gcc/arm-atollic-eabi/6.3.1/../../../../arm-atollic-eabi/lib/armv7e-m/fpu/fpv5-d16/libm.a(lib_a-s_cos.o)
 .bss           0x0000000000000000        0x0 /home/chen/IDEs/TrueStudio/ARMTools/bin/../lib/gcc/arm-atollic-eabi/6.3.1/../../../../arm-atollic-eabi/lib/armv7e-m/fpu/fpv5-d16/libm.a(lib_a-s_cos.o)
 .text          0x0000000000000000        0x0 /home/chen/IDEs/TrueStudio/ARMTools/bin/../lib/gcc/arm-atollic-eabi/6.3.1/../../../../arm-atollic-eabi/lib/armv7e-m/fpu/fpv5-d16/libm.a(lib_a-s_sin.o)
 .data          0x0000000000000000        0x0 /home/chen/IDEs/TrueStudio/ARMTools/bin/../lib/gcc/arm-atollic-eabi/6.3.1/../../../../arm-atollic-eabi/lib/armv7e-m/fpu/fpv5-d16/libm.a(lib_a-s_sin.o)
 .bss           0x0000000000000000        0x0 /home/chen/IDEs/TrueStudio/ARMTools/bin/../lib/gcc/arm-atollic-eabi/6.3.1/../../../../arm-atollic-eabi/lib/armv7e-m/fpu/fpv5-d16/libm.a(lib_a-s_sin.o)
 .text          0x0000000000000000        0x0 /home/chen/IDEs/TrueStudio/ARMTools/bin/../lib/gcc/arm-atollic-eabi/6.3.1/../../../../arm-atollic-eabi/lib/armv7e-m/fpu/fpv5-d16/libm.a(lib_a-e_rem_pio2.o)
 .data          0x0000000000000000        0x0 /home/chen/IDEs/TrueStudio/ARMTools/bin/../lib/gcc/arm-atollic-eabi/6.3.1/../../../../arm-atollic-eabi/lib/armv7e-m/fpu/fpv5-d16/libm.a(lib_a-e_rem_pio2.o)
 .bss           0x0000000000000000        0x0 /home/chen/IDEs/TrueStudio/ARMTools/bin/../lib/gcc/arm-atollic-eabi/6.3.1/../../../../arm-atollic-eabi/lib/armv7e-m/fpu/fpv5-d16/libm.a(lib_a-e_rem_pio2.o)
 .text          0x0000000000000000        0x0 /home/chen/IDEs/TrueStudio/ARMTools/bin/../lib/gcc/arm-atollic-eabi/6.3.1/../../../../arm-atollic-eabi/lib/armv7e-m/fpu/fpv5-d16/libm.a(lib_a-k_cos.o)
 .data          0x0000000000000000        0x0 /home/chen/IDEs/TrueStudio/ARMTools/bin/../lib/gcc/arm-atollic-eabi/6.3.1/../../../../arm-atollic-eabi/lib/armv7e-m/fpu/fpv5-d16/libm.a(lib_a-k_cos.o)
 .bss           0x0000000000000000        0x0 /home/chen/IDEs/TrueStudio/ARMTools/bin/../lib/gcc/arm-atollic-eabi/6.3.1/../../../../arm-atollic-eabi/lib/armv7e-m/fpu/fpv5-d16/libm.a(lib_a-k_cos.o)
 .text          0x0000000000000000        0x0 /home/chen/IDEs/TrueStudio/ARMTools/bin/../lib/gcc/arm-atollic-eabi/6.3.1/../../../../arm-atollic-eabi/lib/armv7e-m/fpu/fpv5-d16/libm.a(lib_a-k_rem_pio2.o)
 .data          0x0000000000000000        0x0 /home/chen/IDEs/TrueStudio/ARMTools/bin/../lib/gcc/arm-atollic-eabi/6.3.1/../../../../arm-atollic-eabi/lib/armv7e-m/fpu/fpv5-d16/libm.a(lib_a-k_rem_pio2.o)
 .bss           0x0000000000000000        0x0 /home/chen/IDEs/TrueStudio/ARMTools/bin/../lib/gcc/arm-atollic-eabi/6.3.1/../../../../arm-atollic-eabi/lib/armv7e-m/fpu/fpv5-d16/libm.a(lib_a-k_rem_pio2.o)
 .text          0x0000000000000000        0x0 /home/chen/IDEs/TrueStudio/ARMTools/bin/../lib/gcc/arm-atollic-eabi/6.3.1/../../../../arm-atollic-eabi/lib/armv7e-m/fpu/fpv5-d16/libm.a(lib_a-k_sin.o)
 .data          0x0000000000000000        0x0 /home/chen/IDEs/TrueStudio/ARMTools/bin/../lib/gcc/arm-atollic-eabi/6.3.1/../../../../arm-atollic-eabi/lib/armv7e-m/fpu/fpv5-d16/libm.a(lib_a-k_sin.o)
 .bss           0x0000000000000000        0x0 /home/chen/IDEs/TrueStudio/ARMTools/bin/../lib/gcc/arm-atollic-eabi/6.3.1/../../../../arm-atollic-eabi/lib/armv7e-m/fpu/fpv5-d16/libm.a(lib_a-k_sin.o)
 .text          0x0000000000000000        0x0 /home/chen/IDEs/TrueStudio/ARMTools/bin/../lib/gcc/arm-atollic-eabi/6.3.1/../../../../arm-atollic-eabi/lib/armv7e-m/fpu/fpv5-d16/libm.a(lib_a-s_fabs.o)
 .data          0x0000000000000000        0x0 /home/chen/IDEs/TrueStudio/ARMTools/bin/../lib/gcc/arm-atollic-eabi/6.3.1/../../../../arm-atollic-eabi/lib/armv7e-m/fpu/fpv5-d16/libm.a(lib_a-s_fabs.o)
 .bss           0x0000000000000000        0x0 /home/chen/IDEs/TrueStudio/ARMTools/bin/../lib/gcc/arm-atollic-eabi/6.3.1/../../../../arm-atollic-eabi/lib/armv7e-m/fpu/fpv5-d16/libm.a(lib_a-s_fabs.o)
 .text          0x0000000000000000        0x0 /home/chen/IDEs/TrueStudio/ARMTools/bin/../lib/gcc/arm-atollic-eabi/6.3.1/../../../../arm-atollic-eabi/lib/armv7e-m/fpu/fpv5-d16/libm.a(lib_a-s_floor.o)
 .data          0x0000000000000000        0x0 /home/chen/IDEs/TrueStudio/ARMTools/bin/../lib/gcc/arm-atollic-eabi/6.3.1/../../../../arm-atollic-eabi/lib/armv7e-m/fpu/fpv5-d16/libm.a(lib_a-s_floor.o)
 .bss           0x0000000000000000        0x0 /home/chen/IDEs/TrueStudio/ARMTools/bin/../lib/gcc/arm-atollic-eabi/6.3.1/../../../../arm-atollic-eabi/lib/armv7e-m/fpu/fpv5-d16/libm.a(lib_a-s_floor.o)
 .text          0x0000000000000000        0x0 /home/chen/IDEs/TrueStudio/ARMTools/bin/../lib/gcc/arm-atollic-eabi/6.3.1/../../../../arm-atollic-eabi/lib/armv7e-m/fpu/fpv5-d16/libm.a(lib_a-s_scalbn.o)
 .data          0x0000000000000000        0x0 /home/chen/IDEs/TrueStudio/ARMTools/bin/../lib/gcc/arm-atollic-eabi/6.3.1/../../../../arm-atollic-eabi/lib/armv7e-m/fpu/fpv5-d16/libm.a(lib_a-s_scalbn.o)
 .bss           0x0000000000000000        0x0 /home/chen/IDEs/TrueStudio/ARMTools/bin/../lib/gcc/arm-atollic-eabi/6.3.1/../../../../arm-atollic-eabi/lib/armv7e-m/fpu/fpv5-d16/libm.a(lib_a-s_scalbn.o)
 .text          0x0000000000000000        0x0 /home/chen/IDEs/TrueStudio/ARMTools/bin/../lib/gcc/arm-atollic-eabi/6.3.1/../../../../arm-atollic-eabi/lib/armv7e-m/fpu/fpv5-d16/libm.a(lib_a-s_copysign.o)
 .data          0x0000000000000000        0x0 /home/chen/IDEs/TrueStudio/ARMTools/bin/../lib/gcc/arm-atollic-eabi/6.3.1/../../../../arm-atollic-eabi/lib/armv7e-m/fpu/fpv5-d16/libm.a(lib_a-s_copysign.o)
 .bss           0x0000000000000000        0x0 /home/chen/IDEs/TrueStudio/ARMTools/bin/../lib/gcc/arm-atollic-eabi/6.3.1/../../../../arm-atollic-eabi/lib/armv7e-m/fpu/fpv5-d16/libm.a(lib_a-s_copysign.o)
 .text          0x0000000000000000        0x0 /home/chen/IDEs/TrueStudio/ARMTools/bin/../lib/gcc/arm-atollic-eabi/6.3.1/../../../../arm-atollic-eabi/lib/armv7e-m/fpu/fpv5-d16/libc_nano.a(lib_a-init.o)
 .data          0x0000000000000000        0x0 /home/chen/IDEs/TrueStudio/ARMTools/bin/../lib/gcc/arm-atollic-eabi/6.3.1/../../../../arm-atollic-eabi/lib/armv7e-m/fpu/fpv5-d16/libc_nano.a(lib_a-init.o)
 .bss           0x0000000000000000        0x0 /home/chen/IDEs/TrueStudio/ARMTools/bin/../lib/gcc/arm-atollic-eabi/6.3.1/../../../../arm-atollic-eabi/lib/armv7e-m/fpu/fpv5-d16/libc_nano.a(lib_a-init.o)
 .text          0x0000000000000000        0x0 /home/chen/IDEs/TrueStudio/ARMTools/bin/../lib/gcc/arm-atollic-eabi/6.3.1/../../../../arm-atollic-eabi/lib/armv7e-m/fpu/fpv5-d16/libc_nano.a(lib_a-memcpy-stub.o)
 .data          0x0000000000000000        0x0 /home/chen/IDEs/TrueStudio/ARMTools/bin/../lib/gcc/arm-atollic-eabi/6.3.1/../../../../arm-atollic-eabi/lib/armv7e-m/fpu/fpv5-d16/libc_nano.a(lib_a-memcpy-stub.o)
 .bss           0x0000000000000000        0x0 /home/chen/IDEs/TrueStudio/ARMTools/bin/../lib/gcc/arm-atollic-eabi/6.3.1/../../../../arm-atollic-eabi/lib/armv7e-m/fpu/fpv5-d16/libc_nano.a(lib_a-memcpy-stub.o)
 .text          0x0000000000000000        0x0 /home/chen/IDEs/TrueStudio/ARMTools/bin/../lib/gcc/arm-atollic-eabi/6.3.1/../../../../arm-atollic-eabi/lib/armv7e-m/fpu/fpv5-d16/libc_nano.a(lib_a-memset.o)
 .data          0x0000000000000000        0x0 /home/chen/IDEs/TrueStudio/ARMTools/bin/../lib/gcc/arm-atollic-eabi/6.3.1/../../../../arm-atollic-eabi/lib/armv7e-m/fpu/fpv5-d16/libc_nano.a(lib_a-memset.o)
 .bss           0x0000000000000000        0x0 /home/chen/IDEs/TrueStudio/ARMTools/bin/../lib/gcc/arm-atollic-eabi/6.3.1/../../../../arm-atollic-eabi/lib/armv7e-m/fpu/fpv5-d16/libc_nano.a(lib_a-memset.o)
 .text          0x0000000000000000        0x0 /home/chen/IDEs/TrueStudio/ARMTools/bin/../lib/gcc/arm-atollic-eabi/6.3.1/armv7e-m/fpu/fpv5-d16/crtend.o
 .data          0x0000000000000000        0x0 /home/chen/IDEs/TrueStudio/ARMTools/bin/../lib/gcc/arm-atollic-eabi/6.3.1/armv7e-m/fpu/fpv5-d16/crtend.o
 .bss           0x0000000000000000        0x0 /home/chen/IDEs/TrueStudio/ARMTools/bin/../lib/gcc/arm-atollic-eabi/6.3.1/armv7e-m/fpu/fpv5-d16/crtend.o
 .eh_frame      0x0000000000000000        0x4 /home/chen/IDEs/TrueStudio/ARMTools/bin/../lib/gcc/arm-atollic-eabi/6.3.1/armv7e-m/fpu/fpv5-d16/crtend.o
 .ARM.attributes
                0x0000000000000000       0x32 /home/chen/IDEs/TrueStudio/ARMTools/bin/../lib/gcc/arm-atollic-eabi/6.3.1/armv7e-m/fpu/fpv5-d16/crtend.o
 .text          0x0000000000000000        0x0 /home/chen/IDEs/TrueStudio/ARMTools/bin/../lib/gcc/arm-atollic-eabi/6.3.1/armv7e-m/fpu/fpv5-d16/crtn.o
 .data          0x0000000000000000        0x0 /home/chen/IDEs/TrueStudio/ARMTools/bin/../lib/gcc/arm-atollic-eabi/6.3.1/armv7e-m/fpu/fpv5-d16/crtn.o
 .bss           0x0000000000000000        0x0 /home/chen/IDEs/TrueStudio/ARMTools/bin/../lib/gcc/arm-atollic-eabi/6.3.1/armv7e-m/fpu/fpv5-d16/crtn.o

Memory Configuration

Name             Origin             Length             Attributes
RAM              0x0000000020000000 0x0000000000080000 xrw
FLASH            0x0000000008000000 0x0000000000200000 xr
*default*        0x0000000000000000 0xffffffffffffffff

Linker script and memory map

LOAD /home/chen/IDEs/TrueStudio/ARMTools/bin/../lib/gcc/arm-atollic-eabi/6.3.1/armv7e-m/fpu/fpv5-d16/crti.o
LOAD /home/chen/IDEs/TrueStudio/ARMTools/bin/../lib/gcc/arm-atollic-eabi/6.3.1/armv7e-m/fpu/fpv5-d16/crtbegin.o
LOAD Application/TrueSTUDIO/startup_stm32f765xx.o
LOAD Application/User/Foc/controlFoc.o
LOAD Application/User/ISRs/isrSensors.o
LOAD Application/User/Idletasks/idletasks.o
LOAD Application/User/SYSINIT/sysinitial.o
LOAD Application/User/debug/datatraceDebug.o
LOAD Application/User/dfsdm.o
LOAD Application/User/dma.o
LOAD Application/User/freertos.o
LOAD Application/User/gpio.o
LOAD Application/User/i2c.o
LOAD Application/User/main.o
LOAD Application/User/spi.o
LOAD Application/User/stm32f7xx_hal_msp.o
LOAD Application/User/stm32f7xx_hal_timebase_TIM.o
LOAD Application/User/stm32f7xx_it.o
LOAD Application/User/tim.o
LOAD Application/User/usart.o
LOAD Application/User/usb_otg.o
LOAD Drivers/CMSIS/system_stm32f7xx.o
LOAD Drivers/STM32F7xx_HAL_Driver/stm32f7xx_hal.o
LOAD Drivers/STM32F7xx_HAL_Driver/stm32f7xx_hal_cortex.o
LOAD Drivers/STM32F7xx_HAL_Driver/stm32f7xx_hal_dfsdm.o
LOAD Drivers/STM32F7xx_HAL_Driver/stm32f7xx_hal_dma.o
LOAD Drivers/STM32F7xx_HAL_Driver/stm32f7xx_hal_dma_ex.o
LOAD Drivers/STM32F7xx_HAL_Driver/stm32f7xx_hal_flash.o
LOAD Drivers/STM32F7xx_HAL_Driver/stm32f7xx_hal_flash_ex.o
LOAD Drivers/STM32F7xx_HAL_Driver/stm32f7xx_hal_gpio.o
LOAD Drivers/STM32F7xx_HAL_Driver/stm32f7xx_hal_i2c.o
LOAD Drivers/STM32F7xx_HAL_Driver/stm32f7xx_hal_i2c_ex.o
LOAD Drivers/STM32F7xx_HAL_Driver/stm32f7xx_hal_pcd.o
LOAD Drivers/STM32F7xx_HAL_Driver/stm32f7xx_hal_pcd_ex.o
LOAD Drivers/STM32F7xx_HAL_Driver/stm32f7xx_hal_pwr.o
LOAD Drivers/STM32F7xx_HAL_Driver/stm32f7xx_hal_pwr_ex.o
LOAD Drivers/STM32F7xx_HAL_Driver/stm32f7xx_hal_rcc.o
LOAD Drivers/STM32F7xx_HAL_Driver/stm32f7xx_hal_rcc_ex.o
LOAD Drivers/STM32F7xx_HAL_Driver/stm32f7xx_hal_spi.o
LOAD Drivers/STM32F7xx_HAL_Driver/stm32f7xx_hal_tim.o
LOAD Drivers/STM32F7xx_HAL_Driver/stm32f7xx_hal_tim_ex.o
LOAD Drivers/STM32F7xx_HAL_Driver/stm32f7xx_hal_uart.o
LOAD Drivers/STM32F7xx_HAL_Driver/stm32f7xx_ll_usb.o
LOAD Middlewares/FreeRTOS/cmsis_os.o
LOAD Middlewares/FreeRTOS/croutine.o
LOAD Middlewares/FreeRTOS/event_groups.o
LOAD Middlewares/FreeRTOS/heap_4.o
LOAD Middlewares/FreeRTOS/list.o
LOAD Middlewares/FreeRTOS/port.o
LOAD Middlewares/FreeRTOS/queue.o
LOAD Middlewares/FreeRTOS/tasks.o
LOAD Middlewares/FreeRTOS/timers.o
                0x0000000000001000                malloc_getpagesize_P = 0x1000
START GROUP
LOAD /home/chen/IDEs/TrueStudio/ARMTools/bin/../lib/gcc/arm-atollic-eabi/6.3.1/../../../../arm-atollic-eabi/lib/armv7e-m/fpu/fpv5-d16/libstdc++_nano.a
LOAD /home/chen/IDEs/TrueStudio/ARMTools/bin/../lib/gcc/arm-atollic-eabi/6.3.1/../../../../arm-atollic-eabi/lib/armv7e-m/fpu/fpv5-d16/libsupc++_nano.a
END GROUP
LOAD /home/chen/IDEs/TrueStudio/ARMTools/bin/../lib/gcc/arm-atollic-eabi/6.3.1/../../../../arm-atollic-eabi/lib/armv7e-m/fpu/fpv5-d16/libstdc++_nano.a
LOAD /home/chen/IDEs/TrueStudio/ARMTools/bin/../lib/gcc/arm-atollic-eabi/6.3.1/../../../../arm-atollic-eabi/lib/armv7e-m/fpu/fpv5-d16/libm.a
LOAD /home/chen/IDEs/TrueStudio/ARMTools/bin/../lib/gcc/arm-atollic-eabi/6.3.1/../../../../arm-atollic-eabi/lib/armv7e-m/fpu/fpv5-d16/libc_nano.a
START GROUP
LOAD /home/chen/IDEs/TrueStudio/ARMTools/bin/../lib/gcc/arm-atollic-eabi/6.3.1/armv7e-m/fpu/fpv5-d16/libgcc.a
LOAD /home/chen/IDEs/TrueStudio/ARMTools/bin/../lib/gcc/arm-atollic-eabi/6.3.1/../../../../arm-atollic-eabi/lib/armv7e-m/fpu/fpv5-d16/libc_nano.a
END GROUP
START GROUP
LOAD /home/chen/IDEs/TrueStudio/ARMTools/bin/../lib/gcc/arm-atollic-eabi/6.3.1/armv7e-m/fpu/fpv5-d16/libgcc.a
LOAD /home/chen/IDEs/TrueStudio/ARMTools/bin/../lib/gcc/arm-atollic-eabi/6.3.1/../../../../arm-atollic-eabi/lib/armv7e-m/fpu/fpv5-d16/libc_nano.a
LOAD /home/chen/IDEs/TrueStudio/ARMTools/bin/../lib/gcc/arm-atollic-eabi/6.3.1/../../../../arm-atollic-eabi/lib/armv7e-m/fpu/fpv5-d16/libnosys.a
END GROUP
START GROUP
LOAD /home/chen/IDEs/TrueStudio/ARMTools/bin/../lib/gcc/arm-atollic-eabi/6.3.1/armv7e-m/fpu/fpv5-d16/libgcc.a
LOAD /home/chen/IDEs/TrueStudio/ARMTools/bin/../lib/gcc/arm-atollic-eabi/6.3.1/../../../../arm-atollic-eabi/lib/armv7e-m/fpu/fpv5-d16/libc_nano.a
LOAD /home/chen/IDEs/TrueStudio/ARMTools/bin/../lib/gcc/arm-atollic-eabi/6.3.1/../../../../arm-atollic-eabi/lib/armv7e-m/fpu/fpv5-d16/libnosys.a
END GROUP
LOAD /home/chen/IDEs/TrueStudio/ARMTools/bin/../lib/gcc/arm-atollic-eabi/6.3.1/armv7e-m/fpu/fpv5-d16/crtend.o
LOAD /home/chen/IDEs/TrueStudio/ARMTools/bin/../lib/gcc/arm-atollic-eabi/6.3.1/armv7e-m/fpu/fpv5-d16/crtn.o
                0x0000000020080000                _estack = 0x20080000
                0x0000000000000200                _Min_Heap_Size = 0x200
                0x0000000000000400                _Min_Stack_Size = 0x400

.isr_vector     0x0000000008000000      0x1f8
                0x0000000008000000                . = ALIGN (0x4)
 *(.isr_vector)
 .isr_vector    0x0000000008000000      0x1f8 Application/TrueSTUDIO/startup_stm32f765xx.o
                0x0000000008000000                g_pfnVectors
                0x00000000080001f8                . = ALIGN (0x4)

.text           0x0000000008000200     0x7ae8
                0x0000000008000200                . = ALIGN (0x4)
 *(.text)
 .text          0x0000000008000200       0x40 /home/chen/IDEs/TrueStudio/ARMTools/bin/../lib/gcc/arm-atollic-eabi/6.3.1/armv7e-m/fpu/fpv5-d16/crtbegin.o
 *(.text*)
 .text.Reset_Handler
                0x0000000008000240       0x50 Application/TrueSTUDIO/startup_stm32f765xx.o
                0x0000000008000240                Reset_Handler
 .text.Default_Handler
                0x0000000008000290        0x2 Application/TrueSTUDIO/startup_stm32f765xx.o
                0x0000000008000290                RTC_Alarm_IRQHandler
                0x0000000008000290                EXTI2_IRQHandler
                0x0000000008000290                TIM8_CC_IRQHandler
                0x0000000008000290                UART8_IRQHandler
                0x0000000008000290                SPI4_IRQHandler
                0x0000000008000290                TIM1_CC_IRQHandler
                0x0000000008000290                DMA2_Stream5_IRQHandler
                0x0000000008000290                DMA1_Stream5_IRQHandler
                0x0000000008000290                CAN3_RX1_IRQHandler
                0x0000000008000290                PVD_IRQHandler
                0x0000000008000290                TAMP_STAMP_IRQHandler
                0x0000000008000290                CAN2_RX1_IRQHandler
                0x0000000008000290                EXTI3_IRQHandler
                0x0000000008000290                TIM8_TRG_COM_TIM14_IRQHandler
                0x0000000008000290                DFSDM1_FLT1_IRQHandler
                0x0000000008000290                TIM1_UP_TIM10_IRQHandler
                0x0000000008000290                TIM8_UP_TIM13_IRQHandler
                0x0000000008000290                I2C3_ER_IRQHandler
                0x0000000008000290                DFSDM1_FLT2_IRQHandler
                0x0000000008000290                EXTI0_IRQHandler
                0x0000000008000290                I2C2_EV_IRQHandler
                0x0000000008000290                CAN1_RX0_IRQHandler
                0x0000000008000290                FPU_IRQHandler
                0x0000000008000290                OTG_HS_WKUP_IRQHandler
                0x0000000008000290                CAN3_SCE_IRQHandler
                0x0000000008000290                CAN2_SCE_IRQHandler
                0x0000000008000290                SPI1_IRQHandler
                0x0000000008000290                TIM6_DAC_IRQHandler
                0x0000000008000290                TIM1_BRK_TIM9_IRQHandler
                0x0000000008000290                DCMI_IRQHandler
                0x0000000008000290                CAN2_RX0_IRQHandler
                0x0000000008000290                DMA2_Stream3_IRQHandler
                0x0000000008000290                SAI2_IRQHandler
                0x0000000008000290                DFSDM1_FLT3_IRQHandler
                0x0000000008000290                USART6_IRQHandler
                0x0000000008000290                CAN3_RX0_IRQHandler
                0x0000000008000290                USART3_IRQHandler
                0x0000000008000290                CAN1_RX1_IRQHandler
                0x0000000008000290                UART5_IRQHandler
                0x0000000008000290                QUADSPI_IRQHandler
                0x0000000008000290                I2C1_EV_IRQHandler
                0x0000000008000290                DMA1_Stream6_IRQHandler
                0x0000000008000290                DMA1_Stream1_IRQHandler
                0x0000000008000290                UART4_IRQHandler
                0x0000000008000290                TIM3_IRQHandler
                0x0000000008000290                RCC_IRQHandler
                0x0000000008000290                TIM8_BRK_TIM12_IRQHandler
                0x0000000008000290                Default_Handler
                0x0000000008000290                CEC_IRQHandler
                0x0000000008000290                EXTI15_10_IRQHandler
                0x0000000008000290                ADC_IRQHandler
                0x0000000008000290                DMA1_Stream7_IRQHandler
                0x0000000008000290                SPI5_IRQHandler
                0x0000000008000290                TIM7_IRQHandler
                0x0000000008000290                SDMMC1_IRQHandler
                0x0000000008000290                CAN2_TX_IRQHandler
                0x0000000008000290                TIM5_IRQHandler
                0x0000000008000290                DMA2_Stream7_IRQHandler
                0x0000000008000290                I2C3_EV_IRQHandler
                0x0000000008000290                EXTI9_5_IRQHandler
                0x0000000008000290                RTC_WKUP_IRQHandler
                0x0000000008000290                ETH_WKUP_IRQHandler
                0x0000000008000290                SPDIF_RX_IRQHandler
                0x0000000008000290                SPI2_IRQHandler
                0x0000000008000290                OTG_HS_EP1_IN_IRQHandler
                0x0000000008000290                DMA1_Stream0_IRQHandler
                0x0000000008000290                CAN1_TX_IRQHandler
                0x0000000008000290                EXTI4_IRQHandler
                0x0000000008000290                RNG_IRQHandler
                0x0000000008000290                ETH_IRQHandler
                0x0000000008000290                OTG_HS_EP1_OUT_IRQHandler
                0x0000000008000290                WWDG_IRQHandler
                0x0000000008000290                SPI6_IRQHandler
                0x0000000008000290                MDIOS_IRQHandler
                0x0000000008000290                I2C4_EV_IRQHandler
                0x0000000008000290                CAN3_TX_IRQHandler
                0x0000000008000290                TIM2_IRQHandler
                0x0000000008000290                OTG_FS_WKUP_IRQHandler
                0x0000000008000290                TIM1_TRG_COM_TIM11_IRQHandler
                0x0000000008000290                OTG_HS_IRQHandler
                0x0000000008000290                DMA2D_IRQHandler
                0x0000000008000290                EXTI1_IRQHandler
                0x0000000008000290                SDMMC2_IRQHandler
                0x0000000008000290                UART7_IRQHandler
                0x0000000008000290                USART2_IRQHandler
                0x0000000008000290                DFSDM1_FLT0_IRQHandler
                0x0000000008000290                I2C2_ER_IRQHandler
                0x0000000008000290                CAN1_SCE_IRQHandler
                0x0000000008000290                FLASH_IRQHandler
                0x0000000008000290                DMA2_Stream4_IRQHandler
                0x0000000008000290                USART1_IRQHandler
                0x0000000008000290                OTG_FS_IRQHandler
                0x0000000008000290                SPI3_IRQHandler
                0x0000000008000290                DMA1_Stream4_IRQHandler
                0x0000000008000290                I2C1_ER_IRQHandler
                0x0000000008000290                FMC_IRQHandler
                0x0000000008000290                LPTIM1_IRQHandler
                0x0000000008000290                I2C4_ER_IRQHandler
                0x0000000008000290                DMA2_Stream6_IRQHandler
                0x0000000008000290                SAI1_IRQHandler
                0x0000000008000290                DMA1_Stream3_IRQHandler
 *fill*         0x0000000008000292        0x6 
 .text.StartcontrolTask
                0x0000000008000298      0x390 Application/User/Foc/controlFoc.o
                0x0000000008000298                StartcontrolTask
 .text.HAL_UART_ErrorCallback
                0x0000000008000628        0xc Application/User/ISRs/isrSensors.o
                0x0000000008000628                HAL_UART_ErrorCallback
 .text.HAL_UART_RxCpltCallback
                0x0000000008000634      0x4b4 Application/User/ISRs/isrSensors.o
                0x0000000008000634                HAL_UART_RxCpltCallback
 .text.StartledblueTask
                0x0000000008000ae8       0x1c Application/User/Idletasks/idletasks.o
                0x0000000008000ae8                StartledblueTask
 .text.StartledgreenTask
                0x0000000008000b04       0x1c Application/User/Idletasks/idletasks.o
                0x0000000008000b04                StartledgreenTask
 .text.StartiwdgTask
                0x0000000008000b20        0xc Application/User/Idletasks/idletasks.o
                0x0000000008000b20                StartiwdgTask
 .text.StartbuzzerrythmTask
                0x0000000008000b2c      0x180 Application/User/Idletasks/idletasks.o
                0x0000000008000b2c                StartbuzzerrythmTask
 *fill*         0x0000000008000cac        0x4 
 .text.StartbuzzertoneTask
                0x0000000008000cb0      0x198 Application/User/Idletasks/idletasks.o
                0x0000000008000cb0                StartbuzzertoneTask
 .text.SystemInitialization
                0x0000000008000e48       0x80 Application/User/SYSINIT/sysinitial.o
                0x0000000008000e48                SystemInitialization
 .text.StartenchallTask
                0x0000000008000ec8      0x5ac Application/User/debug/datatraceDebug.o
                0x0000000008000ec8                StartenchallTask
 .text.MX_DFSDM1_Init
                0x0000000008001474       0xf4 Application/User/dfsdm.o
                0x0000000008001474                MX_DFSDM1_Init
 .text.HAL_DFSDM_FilterMspInit
                0x0000000008001568      0x144 Application/User/dfsdm.o
                0x0000000008001568                HAL_DFSDM_FilterMspInit
 .text.HAL_DFSDM_ChannelMspInit
                0x00000000080016ac       0x7c Application/User/dfsdm.o
                0x00000000080016ac                HAL_DFSDM_ChannelMspInit
 .text.MX_DMA_Init
                0x0000000008001728       0x74 Application/User/dma.o
                0x0000000008001728                MX_DMA_Init
 .text.MX_FREERTOS_Init
                0x000000000800179c      0x188 Application/User/freertos.o
                0x000000000800179c                MX_FREERTOS_Init
 .text.MX_GPIO_Init
                0x0000000008001924       0xf4 Application/User/gpio.o
                0x0000000008001924                MX_GPIO_Init
 .text.MX_I2C4_Init
                0x0000000008001a18       0x6c Application/User/i2c.o
                0x0000000008001a18                MX_I2C4_Init
 .text.HAL_I2C_MspInit
                0x0000000008001a84       0x54 Application/User/i2c.o
                0x0000000008001a84                HAL_I2C_MspInit
 .text.SystemClock_Config
                0x0000000008001ad8       0xe4 Application/User/main.o
                0x0000000008001ad8                SystemClock_Config
 .text.startup.main
                0x0000000008001bbc       0xc0 Application/User/main.o
                0x0000000008001bbc                main
 .text.HAL_TIM_PeriodElapsedCallback
                0x0000000008001c7c       0x14 Application/User/main.o
                0x0000000008001c7c                HAL_TIM_PeriodElapsedCallback
 .text._Error_Handler
                0x0000000008001c90        0x4 Application/User/main.o
                0x0000000008001c90                _Error_Handler
 .text.MX_SPI1_Init
                0x0000000008001c94       0x58 Application/User/spi.o
                0x0000000008001c94                MX_SPI1_Init
 .text.HAL_SPI_MspInit
                0x0000000008001cec       0x64 Application/User/spi.o
                0x0000000008001cec                HAL_SPI_MspInit
 .text.HAL_MspInit
                0x0000000008001d50       0x60 Application/User/stm32f7xx_hal_msp.o
                0x0000000008001d50                HAL_MspInit
 .text.HAL_InitTick
                0x0000000008001db0       0x7c Application/User/stm32f7xx_hal_timebase_TIM.o
                0x0000000008001db0                HAL_InitTick
 .text.NMI_Handler
                0x0000000008001e2c        0x4 Application/User/stm32f7xx_it.o
                0x0000000008001e2c                NMI_Handler
 .text.HardFault_Handler
                0x0000000008001e30        0x4 Application/User/stm32f7xx_it.o
                0x0000000008001e30                HardFault_Handler
 .text.MemManage_Handler
                0x0000000008001e34        0x4 Application/User/stm32f7xx_it.o
                0x0000000008001e34                MemManage_Handler
 .text.BusFault_Handler
                0x0000000008001e38        0x4 Application/User/stm32f7xx_it.o
                0x0000000008001e38                BusFault_Handler
 .text.UsageFault_Handler
                0x0000000008001e3c        0x4 Application/User/stm32f7xx_it.o
                0x0000000008001e3c                UsageFault_Handler
 .text.DebugMon_Handler
                0x0000000008001e40        0x4 Application/User/stm32f7xx_it.o
                0x0000000008001e40                DebugMon_Handler
 .text.SysTick_Handler
                0x0000000008001e44        0x4 Application/User/stm32f7xx_it.o
                0x0000000008001e44                SysTick_Handler
 .text.DMA1_Stream2_IRQHandler
                0x0000000008001e48        0xc Application/User/stm32f7xx_it.o
                0x0000000008001e48                DMA1_Stream2_IRQHandler
 .text.TIM4_IRQHandler
                0x0000000008001e54        0xc Application/User/stm32f7xx_it.o
                0x0000000008001e54                TIM4_IRQHandler
 .text.DMA2_Stream0_IRQHandler
                0x0000000008001e60        0xc Application/User/stm32f7xx_it.o
                0x0000000008001e60                DMA2_Stream0_IRQHandler
 .text.DMA2_Stream1_IRQHandler
                0x0000000008001e6c        0xc Application/User/stm32f7xx_it.o
                0x0000000008001e6c                DMA2_Stream1_IRQHandler
 .text.DMA2_Stream2_IRQHandler
                0x0000000008001e78        0xc Application/User/stm32f7xx_it.o
                0x0000000008001e78                DMA2_Stream2_IRQHandler
 .text.MX_TIM1_Init
                0x0000000008001e84      0x190 Application/User/tim.o
                0x0000000008001e84                MX_TIM1_Init
 .text.MX_TIM2_Init
                0x0000000008002014      0x114 Application/User/tim.o
                0x0000000008002014                MX_TIM2_Init
 .text.HAL_TIM_Base_MspInit
                0x0000000008002128       0x50 Application/User/tim.o
                0x0000000008002128                HAL_TIM_Base_MspInit
 .text.MX_UART4_Init
                0x0000000008002178       0x54 Application/User/usart.o
                0x0000000008002178                MX_UART4_Init
 .text.MX_UART8_Init
                0x00000000080021cc       0x4c Application/User/usart.o
                0x00000000080021cc                MX_UART8_Init
 .text.MX_USART1_UART_Init
                0x0000000008002218       0x4c Application/User/usart.o
                0x0000000008002218                MX_USART1_UART_Init
 .text.MX_USART3_UART_Init
                0x0000000008002264       0x4c Application/User/usart.o
                0x0000000008002264                MX_USART3_UART_Init
 .text.HAL_UART_MspInit
                0x00000000080022b0      0x1a8 Application/User/usart.o
                0x00000000080022b0                HAL_UART_MspInit
 .text.MX_USB_OTG_HS_PCD_Init
                0x0000000008002458       0x44 Application/User/usb_otg.o
                0x0000000008002458                MX_USB_OTG_HS_PCD_Init
 .text.HAL_PCD_MspInit
                0x000000000800249c       0x94 Application/User/usb_otg.o
                0x000000000800249c                HAL_PCD_MspInit
 .text.SystemInit
                0x0000000008002530       0x50 Drivers/CMSIS/system_stm32f7xx.o
                0x0000000008002530                SystemInit
 .text.HAL_Init
                0x0000000008002580       0x24 Drivers/STM32F7xx_HAL_Driver/stm32f7xx_hal.o
                0x0000000008002580                HAL_Init
 .text.HAL_IncTick
                0x00000000080025a4       0x10 Drivers/STM32F7xx_HAL_Driver/stm32f7xx_hal.o
                0x00000000080025a4                HAL_IncTick
 .text.HAL_GetTick
                0x00000000080025b4        0xc Drivers/STM32F7xx_HAL_Driver/stm32f7xx_hal.o
                0x00000000080025b4                HAL_GetTick
 .text.HAL_Delay
                0x00000000080025c0       0x1c Drivers/STM32F7xx_HAL_Driver/stm32f7xx_hal.o
                0x00000000080025c0                HAL_Delay
 .text.HAL_NVIC_SetPriorityGrouping
                0x00000000080025dc       0x28 Drivers/STM32F7xx_HAL_Driver/stm32f7xx_hal_cortex.o
                0x00000000080025dc                HAL_NVIC_SetPriorityGrouping
 .text.HAL_NVIC_SetPriority
                0x0000000008002604       0x74 Drivers/STM32F7xx_HAL_Driver/stm32f7xx_hal_cortex.o
                0x0000000008002604                HAL_NVIC_SetPriority
 .text.HAL_NVIC_EnableIRQ
                0x0000000008002678       0x18 Drivers/STM32F7xx_HAL_Driver/stm32f7xx_hal_cortex.o
                0x0000000008002678                HAL_NVIC_EnableIRQ
 .text.HAL_SYSTICK_Config
                0x0000000008002690       0x30 Drivers/STM32F7xx_HAL_Driver/stm32f7xx_hal_cortex.o
                0x0000000008002690                HAL_SYSTICK_Config
 .text.HAL_SYSTICK_CLKSourceConfig
                0x00000000080026c0       0x18 Drivers/STM32F7xx_HAL_Driver/stm32f7xx_hal_cortex.o
                0x00000000080026c0                HAL_SYSTICK_CLKSourceConfig
 .text.HAL_DFSDM_ChannelInit
                0x00000000080026d8      0x194 Drivers/STM32F7xx_HAL_Driver/stm32f7xx_hal_dfsdm.o
                0x00000000080026d8                HAL_DFSDM_ChannelInit
 .text.HAL_DFSDM_FilterInit
                0x000000000800286c       0xec Drivers/STM32F7xx_HAL_Driver/stm32f7xx_hal_dfsdm.o
                0x000000000800286c                HAL_DFSDM_FilterInit
 .text.HAL_DFSDM_FilterConfigRegChannel
                0x0000000008002958       0x54 Drivers/STM32F7xx_HAL_Driver/stm32f7xx_hal_dfsdm.o
                0x0000000008002958                HAL_DFSDM_FilterConfigRegChannel
 .text.HAL_DFSDM_FilterRegularStart
                0x00000000080029ac       0x74 Drivers/STM32F7xx_HAL_Driver/stm32f7xx_hal_dfsdm.o
                0x00000000080029ac                HAL_DFSDM_FilterRegularStart
 .text.HAL_DFSDM_FilterGetRegularValue
                0x0000000008002a20       0x10 Drivers/STM32F7xx_HAL_Driver/stm32f7xx_hal_dfsdm.o
                0x0000000008002a20                HAL_DFSDM_FilterGetRegularValue
 .text.HAL_DFSDM_FilterErrorCallback
                0x0000000008002a30        0x4 Drivers/STM32F7xx_HAL_Driver/stm32f7xx_hal_dfsdm.o
                0x0000000008002a30                HAL_DFSDM_FilterErrorCallback
 .text.HAL_DFSDM_FilterPollForRegConversion
                0x0000000008002a34       0x74 Drivers/STM32F7xx_HAL_Driver/stm32f7xx_hal_dfsdm.o
                0x0000000008002a34                HAL_DFSDM_FilterPollForRegConversion
 .text.HAL_DMA_Init
                0x0000000008002aa8      0x13c Drivers/STM32F7xx_HAL_Driver/stm32f7xx_hal_dma.o
                0x0000000008002aa8                HAL_DMA_Init
 .text.HAL_DMA_Start_IT
                0x0000000008002be4       0x88 Drivers/STM32F7xx_HAL_Driver/stm32f7xx_hal_dma.o
                0x0000000008002be4                HAL_DMA_Start_IT
 .text.HAL_DMA_IRQHandler
                0x0000000008002c6c      0x1a8 Drivers/STM32F7xx_HAL_Driver/stm32f7xx_hal_dma.o
                0x0000000008002c6c                HAL_DMA_IRQHandler
 .text.HAL_GPIO_Init
                0x0000000008002e14      0x254 Drivers/STM32F7xx_HAL_Driver/stm32f7xx_hal_gpio.o
                0x0000000008002e14                HAL_GPIO_Init
 .text.HAL_GPIO_WritePin
                0x0000000008003068        0x8 Drivers/STM32F7xx_HAL_Driver/stm32f7xx_hal_gpio.o
                0x0000000008003068                HAL_GPIO_WritePin
 .text.HAL_GPIO_TogglePin
                0x0000000008003070        0x8 Drivers/STM32F7xx_HAL_Driver/stm32f7xx_hal_gpio.o
                0x0000000008003070                HAL_GPIO_TogglePin
 .text.HAL_I2C_Init
                0x0000000008003078       0xac Drivers/STM32F7xx_HAL_Driver/stm32f7xx_hal_i2c.o
                0x0000000008003078                HAL_I2C_Init
 .text.HAL_I2CEx_ConfigAnalogFilter
                0x0000000008003124       0x50 Drivers/STM32F7xx_HAL_Driver/stm32f7xx_hal_i2c_ex.o
                0x0000000008003124                HAL_I2CEx_ConfigAnalogFilter
 .text.HAL_I2CEx_ConfigDigitalFilter
                0x0000000008003174       0x50 Drivers/STM32F7xx_HAL_Driver/stm32f7xx_hal_i2c_ex.o
                0x0000000008003174                HAL_I2CEx_ConfigDigitalFilter
 .text.HAL_PCD_Init
                0x00000000080031c4      0x438 Drivers/STM32F7xx_HAL_Driver/stm32f7xx_hal_pcd.o
                0x00000000080031c4                HAL_PCD_Init
 .text.HAL_PCDEx_ActivateLPM
                0x00000000080035fc       0x2c Drivers/STM32F7xx_HAL_Driver/stm32f7xx_hal_pcd_ex.o
                0x00000000080035fc                HAL_PCDEx_ActivateLPM
 .text.HAL_PWREx_EnableOverDrive
                0x0000000008003628       0x78 Drivers/STM32F7xx_HAL_Driver/stm32f7xx_hal_pwr_ex.o
                0x0000000008003628                HAL_PWREx_EnableOverDrive
 .text.HAL_RCC_OscConfig
                0x00000000080036a0      0x3b0 Drivers/STM32F7xx_HAL_Driver/stm32f7xx_hal_rcc.o
                0x00000000080036a0                HAL_RCC_OscConfig
 .text.HAL_RCC_ClockConfig
                0x0000000008003a50      0x168 Drivers/STM32F7xx_HAL_Driver/stm32f7xx_hal_rcc.o
                0x0000000008003a50                HAL_RCC_ClockConfig
 .text.HAL_RCC_GetSysClockFreq
                0x0000000008003bb8       0x54 Drivers/STM32F7xx_HAL_Driver/stm32f7xx_hal_rcc.o
                0x0000000008003bb8                HAL_RCC_GetSysClockFreq
 .text.HAL_RCC_GetHCLKFreq
                0x0000000008003c0c        0xc Drivers/STM32F7xx_HAL_Driver/stm32f7xx_hal_rcc.o
                0x0000000008003c0c                HAL_RCC_GetHCLKFreq
 .text.HAL_RCC_GetPCLK1Freq
                0x0000000008003c18       0x20 Drivers/STM32F7xx_HAL_Driver/stm32f7xx_hal_rcc.o
                0x0000000008003c18                HAL_RCC_GetPCLK1Freq
 .text.HAL_RCC_GetPCLK2Freq
                0x0000000008003c38       0x20 Drivers/STM32F7xx_HAL_Driver/stm32f7xx_hal_rcc.o
                0x0000000008003c38                HAL_RCC_GetPCLK2Freq
 .text.HAL_RCC_GetClockConfig
                0x0000000008003c58       0x44 Drivers/STM32F7xx_HAL_Driver/stm32f7xx_hal_rcc.o
                0x0000000008003c58                HAL_RCC_GetClockConfig
 .text.HAL_RCCEx_PeriphCLKConfig
                0x0000000008003c9c      0x540 Drivers/STM32F7xx_HAL_Driver/stm32f7xx_hal_rcc_ex.o
                0x0000000008003c9c                HAL_RCCEx_PeriphCLKConfig
 .text.HAL_SPI_Init
                0x00000000080041dc       0xc4 Drivers/STM32F7xx_HAL_Driver/stm32f7xx_hal_spi.o
                0x00000000080041dc                HAL_SPI_Init
 .text.HAL_TIM_Base_Init
                0x00000000080042a0      0x14c Drivers/STM32F7xx_HAL_Driver/stm32f7xx_hal_tim.o
                0x00000000080042a0                HAL_TIM_Base_Init
 .text.HAL_TIM_Base_Start_IT
                0x00000000080043ec       0x18 Drivers/STM32F7xx_HAL_Driver/stm32f7xx_hal_tim.o
                0x00000000080043ec                HAL_TIM_Base_Start_IT
 .text.HAL_TIM_PWM_MspInit
                0x0000000008004404        0x4 Drivers/STM32F7xx_HAL_Driver/stm32f7xx_hal_tim.o
                0x0000000008004404                HAL_TIM_PWM_MspInit
 .text.HAL_TIM_PWM_Init
                0x0000000008004408      0x14c Drivers/STM32F7xx_HAL_Driver/stm32f7xx_hal_tim.o
                0x0000000008004408                HAL_TIM_PWM_Init
 .text.HAL_TIM_PWM_Start
                0x0000000008004554       0x48 Drivers/STM32F7xx_HAL_Driver/stm32f7xx_hal_tim.o
                0x0000000008004554                HAL_TIM_PWM_Start
 .text.HAL_TIM_ConfigClockSource
                0x000000000800459c      0x190 Drivers/STM32F7xx_HAL_Driver/stm32f7xx_hal_tim.o
                0x000000000800459c                HAL_TIM_ConfigClockSource
 .text.HAL_TIM_OC_DelayElapsedCallback
                0x000000000800472c        0x4 Drivers/STM32F7xx_HAL_Driver/stm32f7xx_hal_tim.o
                0x000000000800472c                HAL_TIM_OC_DelayElapsedCallback
 .text.HAL_TIM_IC_CaptureCallback
                0x0000000008004730        0x4 Drivers/STM32F7xx_HAL_Driver/stm32f7xx_hal_tim.o
                0x0000000008004730                HAL_TIM_IC_CaptureCallback
 .text.HAL_TIM_PWM_PulseFinishedCallback
                0x0000000008004734        0x4 Drivers/STM32F7xx_HAL_Driver/stm32f7xx_hal_tim.o
                0x0000000008004734                HAL_TIM_PWM_PulseFinishedCallback
 .text.HAL_TIM_TriggerCallback
                0x0000000008004738        0x4 Drivers/STM32F7xx_HAL_Driver/stm32f7xx_hal_tim.o
                0x0000000008004738                HAL_TIM_TriggerCallback
 .text.HAL_TIM_IRQHandler
                0x000000000800473c      0x170 Drivers/STM32F7xx_HAL_Driver/stm32f7xx_hal_tim.o
                0x000000000800473c                HAL_TIM_IRQHandler
 .text.TIM_OC1_SetConfig
                0x00000000080048ac       0x64 Drivers/STM32F7xx_HAL_Driver/stm32f7xx_hal_tim.o
                0x00000000080048ac                TIM_OC1_SetConfig
 .text.TIM_OC2_SetConfig
                0x0000000008004910       0x68 Drivers/STM32F7xx_HAL_Driver/stm32f7xx_hal_tim.o
                0x0000000008004910                TIM_OC2_SetConfig
 .text.TIM_OC3_SetConfig
                0x0000000008004978       0x68 Drivers/STM32F7xx_HAL_Driver/stm32f7xx_hal_tim.o
                0x0000000008004978                TIM_OC3_SetConfig
 .text.TIM_OC4_SetConfig
                0x00000000080049e0       0x58 Drivers/STM32F7xx_HAL_Driver/stm32f7xx_hal_tim.o
                0x00000000080049e0                TIM_OC4_SetConfig
 .text.HAL_TIMEx_PWMN_Start
                0x0000000008004a38       0x30 Drivers/STM32F7xx_HAL_Driver/stm32f7xx_hal_tim_ex.o
                0x0000000008004a38                HAL_TIMEx_PWMN_Start
 .text.HAL_TIMEx_MasterConfigSynchronization
                0x0000000008004a68       0x58 Drivers/STM32F7xx_HAL_Driver/stm32f7xx_hal_tim_ex.o
                0x0000000008004a68                HAL_TIMEx_MasterConfigSynchronization
 .text.HAL_TIMEx_ConfigBreakDeadTime
                0x0000000008004ac0       0x98 Drivers/STM32F7xx_HAL_Driver/stm32f7xx_hal_tim_ex.o
                0x0000000008004ac0                HAL_TIMEx_ConfigBreakDeadTime
 .text.HAL_TIMEx_CommutationCallback
                0x0000000008004b58        0x4 Drivers/STM32F7xx_HAL_Driver/stm32f7xx_hal_tim_ex.o
                0x0000000008004b58                HAL_TIMEx_CommutationCallback
 .text.HAL_TIMEx_BreakCallback
                0x0000000008004b5c        0x4 Drivers/STM32F7xx_HAL_Driver/stm32f7xx_hal_tim_ex.o
                0x0000000008004b5c                HAL_TIMEx_BreakCallback
 .text.HAL_TIM_PWM_ConfigChannel
                0x0000000008004b60      0x1bc Drivers/STM32F7xx_HAL_Driver/stm32f7xx_hal_tim_ex.o
                0x0000000008004b60                HAL_TIM_PWM_ConfigChannel
 .text.HAL_UART_Transmit
                0x0000000008004d1c      0x100 Drivers/STM32F7xx_HAL_Driver/stm32f7xx_hal_uart.o
                0x0000000008004d1c                HAL_UART_Transmit
 .text.HAL_UART_Receive_DMA
                0x0000000008004e1c       0x90 Drivers/STM32F7xx_HAL_Driver/stm32f7xx_hal_uart.o
                0x0000000008004e1c                HAL_UART_Receive_DMA
 .text.HAL_UART_DMAResume
                0x0000000008004eac       0x74 Drivers/STM32F7xx_HAL_Driver/stm32f7xx_hal_uart.o
                0x0000000008004eac                HAL_UART_DMAResume
 .text.UART_DMAReceiveCplt
                0x0000000008004f20       0x38 Drivers/STM32F7xx_HAL_Driver/stm32f7xx_hal_uart.o
 .text.HAL_UART_RxHalfCpltCallback
                0x0000000008004f58        0x4 Drivers/STM32F7xx_HAL_Driver/stm32f7xx_hal_uart.o
                0x0000000008004f58                HAL_UART_RxHalfCpltCallback
 .text.UART_DMARxHalfCplt
                0x0000000008004f5c        0xc Drivers/STM32F7xx_HAL_Driver/stm32f7xx_hal_uart.o
 .text.UART_DMAError
                0x0000000008004f68       0x68 Drivers/STM32F7xx_HAL_Driver/stm32f7xx_hal_uart.o
 .text.UART_AdvFeatureConfig
                0x0000000008004fd0       0xb0 Drivers/STM32F7xx_HAL_Driver/stm32f7xx_hal_uart.o
                0x0000000008004fd0                UART_AdvFeatureConfig
 .text.HAL_UART_Init
                0x0000000008005080      0x388 Drivers/STM32F7xx_HAL_Driver/stm32f7xx_hal_uart.o
                0x0000000008005080                HAL_UART_Init
 .text.USB_CoreInit
                0x0000000008005408       0xb8 Drivers/STM32F7xx_HAL_Driver/stm32f7xx_ll_usb.o
                0x0000000008005408                USB_CoreInit
 .text.USB_DisableGlobalInt
                0x00000000080054c0       0x10 Drivers/STM32F7xx_HAL_Driver/stm32f7xx_ll_usb.o
                0x00000000080054c0                USB_DisableGlobalInt
 .text.USB_SetCurrentMode
                0x00000000080054d0       0x34 Drivers/STM32F7xx_HAL_Driver/stm32f7xx_ll_usb.o
                0x00000000080054d0                USB_SetCurrentMode
 .text.USB_DevInit
                0x0000000008005504      0x1b0 Drivers/STM32F7xx_HAL_Driver/stm32f7xx_ll_usb.o
                0x0000000008005504                USB_DevInit
 .text.USB_DevDisconnect
                0x00000000080056b4       0x18 Drivers/STM32F7xx_HAL_Driver/stm32f7xx_ll_usb.o
                0x00000000080056b4                USB_DevDisconnect
 .text.osKernelStart
                0x00000000080056cc        0xc Middlewares/FreeRTOS/cmsis_os.o
                0x00000000080056cc                osKernelStart
 .text.osThreadCreate
                0x00000000080056d8       0x30 Middlewares/FreeRTOS/cmsis_os.o
                0x00000000080056d8                osThreadCreate
 .text.osDelay  0x0000000008005708       0x10 Middlewares/FreeRTOS/cmsis_os.o
                0x0000000008005708                osDelay
 .text.osMutexCreate
                0x0000000008005718        0x8 Middlewares/FreeRTOS/cmsis_os.o
                0x0000000008005718                osMutexCreate
 .text.osMessageCreate
                0x0000000008005720        0x8 Middlewares/FreeRTOS/cmsis_os.o
                0x0000000008005720                osMessageCreate
 .text.osSystickHandler
                0x0000000008005728       0x14 Middlewares/FreeRTOS/cmsis_os.o
                0x0000000008005728                osSystickHandler
 .text.unlikely.prvInsertBlockIntoFreeList
                0x000000000800573c       0x50 Middlewares/FreeRTOS/heap_4.o
 .text.pvPortMalloc
                0x000000000800578c      0x13c Middlewares/FreeRTOS/heap_4.o
                0x000000000800578c                pvPortMalloc
 .text.vPortFree
                0x00000000080058c8       0x78 Middlewares/FreeRTOS/heap_4.o
                0x00000000080058c8                vPortFree
 .text.vListInitialise
                0x0000000008005940       0x18 Middlewares/FreeRTOS/list.o
                0x0000000008005940                vListInitialise
 .text.vListInitialiseItem
                0x0000000008005958        0x8 Middlewares/FreeRTOS/list.o
                0x0000000008005958                vListInitialiseItem
 .text.vListInsertEnd
                0x0000000008005960       0x20 Middlewares/FreeRTOS/list.o
                0x0000000008005960                vListInsertEnd
 .text.vListInsert
                0x0000000008005980       0x34 Middlewares/FreeRTOS/list.o
                0x0000000008005980                vListInsert
 .text.uxListRemove
                0x00000000080059b4       0x28 Middlewares/FreeRTOS/list.o
                0x00000000080059b4                uxListRemove
 .text.prvTaskExitError
                0x00000000080059dc       0x38 Middlewares/FreeRTOS/port.o
 .text.prvPortStartFirstTask
                0x0000000008005a14       0x20 Middlewares/FreeRTOS/port.o
 .text.vPortEnableVFP
                0x0000000008005a34       0x14 Middlewares/FreeRTOS/port.o
 .text.pxPortInitialiseStack
                0x0000000008005a48       0x30 Middlewares/FreeRTOS/port.o
                0x0000000008005a48                pxPortInitialiseStack
 *fill*         0x0000000008005a78        0x8 
 .text.SVC_Handler
                0x0000000008005a80       0x24 Middlewares/FreeRTOS/port.o
                0x0000000008005a80                SVC_Handler
 .text.vPortEnterCritical
                0x0000000008005aa4       0x4c Middlewares/FreeRTOS/port.o
                0x0000000008005aa4                vPortEnterCritical
 .text.vPortExitCritical
                0x0000000008005af0       0x2c Middlewares/FreeRTOS/port.o
                0x0000000008005af0                vPortExitCritical
 *fill*         0x0000000008005b1c        0x4 
 .text.PendSV_Handler
                0x0000000008005b20       0x64 Middlewares/FreeRTOS/port.o
                0x0000000008005b20                PendSV_Handler
 .text.xPortSysTickHandler
                0x0000000008005b84       0x30 Middlewares/FreeRTOS/port.o
                0x0000000008005b84                xPortSysTickHandler
 .text.vPortSetupTimerInterrupt
                0x0000000008005bb4       0x2c Middlewares/FreeRTOS/port.o
                0x0000000008005bb4                vPortSetupTimerInterrupt
 .text.xPortStartScheduler
                0x0000000008005be0       0xa8 Middlewares/FreeRTOS/port.o
                0x0000000008005be0                xPortStartScheduler
 .text.vPortValidateInterruptPriority
                0x0000000008005c88       0x64 Middlewares/FreeRTOS/port.o
                0x0000000008005c88                vPortValidateInterruptPriority
 .text.unlikely.prvCopyDataToQueue
                0x0000000008005cec       0x6c Middlewares/FreeRTOS/queue.o
 .text.unlikely.prvCopyDataFromQueue
                0x0000000008005d58       0x26 Middlewares/FreeRTOS/queue.o
 *fill*         0x0000000008005d7e        0x2 
 .text.prvUnlockQueue
                0x0000000008005d80       0x94 Middlewares/FreeRTOS/queue.o
 .text.xQueueGenericCreate
                0x0000000008005e14       0x7c Middlewares/FreeRTOS/queue.o
                0x0000000008005e14                xQueueGenericCreate
 .text.xQueueGenericSend
                0x0000000008005e90      0x2cc Middlewares/FreeRTOS/queue.o
                0x0000000008005e90                xQueueGenericSend
 .text.xQueueCreateMutex
                0x000000000800615c       0x68 Middlewares/FreeRTOS/queue.o
                0x000000000800615c                xQueueCreateMutex
 .text.xQueueGenericSendFromISR
                0x00000000080061c4       0xe0 Middlewares/FreeRTOS/queue.o
                0x00000000080061c4                xQueueGenericSendFromISR
 .text.xQueueGenericReceive
                0x00000000080062a4      0x2d4 Middlewares/FreeRTOS/queue.o
                0x00000000080062a4                xQueueGenericReceive
 .text.prvAddCurrentTaskToDelayedList
                0x0000000008006578       0x8c Middlewares/FreeRTOS/tasks.o
 .text.xTaskCreate
                0x0000000008006604      0x260 Middlewares/FreeRTOS/tasks.o
                0x0000000008006604                xTaskCreate
 .text.vTaskStartScheduler
                0x0000000008006864       0x80 Middlewares/FreeRTOS/tasks.o
                0x0000000008006864                vTaskStartScheduler
 .text.vTaskSuspendAll
                0x00000000080068e4       0x10 Middlewares/FreeRTOS/tasks.o
                0x00000000080068e4                vTaskSuspendAll
 .text.xTaskIncrementTick
                0x00000000080068f4      0x160 Middlewares/FreeRTOS/tasks.o
                0x00000000080068f4                xTaskIncrementTick
 .text.xTaskResumeAll
                0x0000000008006a54      0x120 Middlewares/FreeRTOS/tasks.o
                0x0000000008006a54                xTaskResumeAll
 .text.vTaskDelay
                0x0000000008006b74       0x50 Middlewares/FreeRTOS/tasks.o
                0x0000000008006b74                vTaskDelay
 .text.prvIdleTask
                0x0000000008006bc4       0x90 Middlewares/FreeRTOS/tasks.o
 .text.vTaskSwitchContext
                0x0000000008006c54       0x7c Middlewares/FreeRTOS/tasks.o
                0x0000000008006c54                vTaskSwitchContext
 .text.vTaskPlaceOnEventList
                0x0000000008006cd0       0xa8 Middlewares/FreeRTOS/tasks.o
                0x0000000008006cd0                vTaskPlaceOnEventList
 .text.xTaskRemoveFromEventList
                0x0000000008006d78       0x90 Middlewares/FreeRTOS/tasks.o
                0x0000000008006d78                xTaskRemoveFromEventList
 .text.vTaskSetTimeOutState
                0x0000000008006e08       0x30 Middlewares/FreeRTOS/tasks.o
                0x0000000008006e08                vTaskSetTimeOutState
 .text.xTaskCheckForTimeOut
                0x0000000008006e38       0x90 Middlewares/FreeRTOS/tasks.o
                0x0000000008006e38                xTaskCheckForTimeOut
 .text.vTaskMissedYield
                0x0000000008006ec8        0xc Middlewares/FreeRTOS/tasks.o
                0x0000000008006ec8                vTaskMissedYield
 .text.xTaskGetSchedulerState
                0x0000000008006ed4       0x20 Middlewares/FreeRTOS/tasks.o
                0x0000000008006ed4                xTaskGetSchedulerState
 .text.vTaskPriorityInherit
                0x0000000008006ef4       0x9c Middlewares/FreeRTOS/tasks.o
                0x0000000008006ef4                vTaskPriorityInherit
 .text.xTaskPriorityDisinherit
                0x0000000008006f90       0xbc Middlewares/FreeRTOS/tasks.o
                0x0000000008006f90                xTaskPriorityDisinherit
 .text.pvTaskIncrementMutexHeldCount
                0x000000000800704c       0x18 Middlewares/FreeRTOS/tasks.o
                0x000000000800704c                pvTaskIncrementMutexHeldCount
 *fill*         0x0000000008007064        0x4 
 .text.cos      0x0000000008007068       0x78 /home/chen/IDEs/TrueStudio/ARMTools/bin/../lib/gcc/arm-atollic-eabi/6.3.1/../../../../arm-atollic-eabi/lib/armv7e-m/fpu/fpv5-d16/libm.a(lib_a-s_cos.o)
                0x0000000008007068                cos
 .text.sin      0x00000000080070e0       0x78 /home/chen/IDEs/TrueStudio/ARMTools/bin/../lib/gcc/arm-atollic-eabi/6.3.1/../../../../arm-atollic-eabi/lib/armv7e-m/fpu/fpv5-d16/libm.a(lib_a-s_sin.o)
                0x00000000080070e0                sin
 .text.__ieee754_rem_pio2
                0x0000000008007158      0x280 /home/chen/IDEs/TrueStudio/ARMTools/bin/../lib/gcc/arm-atollic-eabi/6.3.1/../../../../arm-atollic-eabi/lib/armv7e-m/fpu/fpv5-d16/libm.a(lib_a-e_rem_pio2.o)
                0x0000000008007158                __ieee754_rem_pio2
 .text.__kernel_cos
                0x00000000080073d8       0xd8 /home/chen/IDEs/TrueStudio/ARMTools/bin/../lib/gcc/arm-atollic-eabi/6.3.1/../../../../arm-atollic-eabi/lib/armv7e-m/fpu/fpv5-d16/libm.a(lib_a-k_cos.o)
                0x00000000080073d8                __kernel_cos
 .text.__kernel_rem_pio2
                0x00000000080074b0      0x4e8 /home/chen/IDEs/TrueStudio/ARMTools/bin/../lib/gcc/arm-atollic-eabi/6.3.1/../../../../arm-atollic-eabi/lib/armv7e-m/fpu/fpv5-d16/libm.a(lib_a-k_rem_pio2.o)
                0x00000000080074b0                __kernel_rem_pio2
 .text.__kernel_sin
                0x0000000008007998       0xb0 /home/chen/IDEs/TrueStudio/ARMTools/bin/../lib/gcc/arm-atollic-eabi/6.3.1/../../../../arm-atollic-eabi/lib/armv7e-m/fpu/fpv5-d16/libm.a(lib_a-k_sin.o)
                0x0000000008007998                __kernel_sin
 .text.fabs     0x0000000008007a48        0xe /home/chen/IDEs/TrueStudio/ARMTools/bin/../lib/gcc/arm-atollic-eabi/6.3.1/../../../../arm-atollic-eabi/lib/armv7e-m/fpu/fpv5-d16/libm.a(lib_a-s_fabs.o)
                0x0000000008007a48                fabs
 *fill*         0x0000000008007a56        0x2 
 .text.floor    0x0000000008007a58       0xf0 /home/chen/IDEs/TrueStudio/ARMTools/bin/../lib/gcc/arm-atollic-eabi/6.3.1/../../../../arm-atollic-eabi/lib/armv7e-m/fpu/fpv5-d16/libm.a(lib_a-s_floor.o)
                0x0000000008007a58                floor
 .text.scalbn   0x0000000008007b48       0xfc /home/chen/IDEs/TrueStudio/ARMTools/bin/../lib/gcc/arm-atollic-eabi/6.3.1/../../../../arm-atollic-eabi/lib/armv7e-m/fpu/fpv5-d16/libm.a(lib_a-s_scalbn.o)
                0x0000000008007b48                scalbn
 .text.copysign
                0x0000000008007c44       0x1a /home/chen/IDEs/TrueStudio/ARMTools/bin/../lib/gcc/arm-atollic-eabi/6.3.1/../../../../arm-atollic-eabi/lib/armv7e-m/fpu/fpv5-d16/libm.a(lib_a-s_copysign.o)
                0x0000000008007c44                copysign
 *fill*         0x0000000008007c5e        0x2 
 .text.__libc_init_array
                0x0000000008007c60       0x48 /home/chen/IDEs/TrueStudio/ARMTools/bin/../lib/gcc/arm-atollic-eabi/6.3.1/../../../../arm-atollic-eabi/lib/armv7e-m/fpu/fpv5-d16/libc_nano.a(lib_a-init.o)
                0x0000000008007c60                __libc_init_array
 .text.memcpy   0x0000000008007ca8       0x16 /home/chen/IDEs/TrueStudio/ARMTools/bin/../lib/gcc/arm-atollic-eabi/6.3.1/../../../../arm-atollic-eabi/lib/armv7e-m/fpu/fpv5-d16/libc_nano.a(lib_a-memcpy-stub.o)
                0x0000000008007ca8                memcpy
 .text.memset   0x0000000008007cbe       0x10 /home/chen/IDEs/TrueStudio/ARMTools/bin/../lib/gcc/arm-atollic-eabi/6.3.1/../../../../arm-atollic-eabi/lib/armv7e-m/fpu/fpv5-d16/libc_nano.a(lib_a-memset.o)
                0x0000000008007cbe                memset
 *(.glue_7)
 .glue_7        0x0000000008007cce        0x0 linker stubs
 *(.glue_7t)
 .glue_7t       0x0000000008007cce        0x0 linker stubs
 *(.eh_frame)
 *fill*         0x0000000008007cce        0x2 
 .eh_frame      0x0000000008007cd0        0x0 /home/chen/IDEs/TrueStudio/ARMTools/bin/../lib/gcc/arm-atollic-eabi/6.3.1/armv7e-m/fpu/fpv5-d16/crtbegin.o
 *(.init)
 .init          0x0000000008007cd0        0x4 /home/chen/IDEs/TrueStudio/ARMTools/bin/../lib/gcc/arm-atollic-eabi/6.3.1/armv7e-m/fpu/fpv5-d16/crti.o
                0x0000000008007cd0                _init
 .init          0x0000000008007cd4        0x8 /home/chen/IDEs/TrueStudio/ARMTools/bin/../lib/gcc/arm-atollic-eabi/6.3.1/armv7e-m/fpu/fpv5-d16/crtn.o
 *(.fini)
 .fini          0x0000000008007cdc        0x4 /home/chen/IDEs/TrueStudio/ARMTools/bin/../lib/gcc/arm-atollic-eabi/6.3.1/armv7e-m/fpu/fpv5-d16/crti.o
                0x0000000008007cdc                _fini
 .fini          0x0000000008007ce0        0x8 /home/chen/IDEs/TrueStudio/ARMTools/bin/../lib/gcc/arm-atollic-eabi/6.3.1/armv7e-m/fpu/fpv5-d16/crtn.o
                0x0000000008007ce8                . = ALIGN (0x4)
                0x0000000008007ce8                _etext = .

.vfp11_veneer   0x0000000008007ce8        0x0
 .vfp11_veneer  0x0000000008007ce8        0x0 linker stubs

.v4_bx          0x0000000008007ce8        0x0
 .v4_bx         0x0000000008007ce8        0x0 linker stubs

.iplt           0x0000000008007ce8        0x0
 .iplt          0x0000000008007ce8        0x0 /home/chen/IDEs/TrueStudio/ARMTools/bin/../lib/gcc/arm-atollic-eabi/6.3.1/armv7e-m/fpu/fpv5-d16/crtbegin.o

.rodata         0x0000000008007ce8      0x3f8
                0x0000000008007ce8                . = ALIGN (0x4)
 *(.rodata)
 .rodata        0x0000000008007ce8       0x30 Application/User/Idletasks/idletasks.o
 .rodata        0x0000000008007d18       0xb4 Application/User/freertos.o
 *(.rodata*)
 .rodata.HAL_UART_ErrorCallback.str1.4
                0x0000000008007dcc       0x19 Application/User/ISRs/isrSensors.o
 *fill*         0x0000000008007de5        0x3 
 .rodata.MX_DFSDM1_Init.str1.4
                0x0000000008007de8       0x15 Application/User/dfsdm.o
 *fill*         0x0000000008007dfd        0x3 
 .rodata.str1.4
                0x0000000008007e00       0x60 Application/User/freertos.o
 .rodata.MX_I2C4_Init.str1.4
                0x0000000008007e60       0x13 Application/User/i2c.o
 *fill*         0x0000000008007e73        0x1 
 .rodata.MX_SPI1_Init.str1.4
                0x0000000008007e74       0x13 Application/User/spi.o
 *fill*         0x0000000008007e87        0x1 
 .rodata.MX_TIM1_Init.str1.4
                0x0000000008007e88       0x13 Application/User/tim.o
 *fill*         0x0000000008007e9b        0x1 
 .rodata.MX_UART4_Init.str1.4
                0x0000000008007e9c       0x15 Application/User/usart.o
 *fill*         0x0000000008007eb1        0x3 
 .rodata.MX_USB_OTG_HS_PCD_Init.str1.4
                0x0000000008007eb4       0x17 Application/User/usb_otg.o
 *fill*         0x0000000008007ecb        0x1 
 .rodata.AHBPrescTable
                0x0000000008007ecc       0x10 Drivers/CMSIS/system_stm32f7xx.o
                0x0000000008007ecc                AHBPrescTable
 .rodata.APBPrescTable
                0x0000000008007edc        0x8 Drivers/CMSIS/system_stm32f7xx.o
                0x0000000008007edc                APBPrescTable
 .rodata.flagBitshiftOffset.10274
                0x0000000008007ee4        0x8 Drivers/STM32F7xx_HAL_Driver/stm32f7xx_hal_dma.o
 .rodata.CSWTCH.38
                0x0000000008007eec        0x4 Drivers/STM32F7xx_HAL_Driver/stm32f7xx_hal_uart.o
 .rodata.CSWTCH.39
                0x0000000008007ef0        0xd Drivers/STM32F7xx_HAL_Driver/stm32f7xx_hal_uart.o
 *fill*         0x0000000008007efd        0x3 
 .rodata.vTaskStartScheduler.str1.4
                0x0000000008007f00        0x8 Middlewares/FreeRTOS/tasks.o
                                          0x5 (size before relaxing)
 .rodata.npio2_hw
                0x0000000008007f08       0x80 /home/chen/IDEs/TrueStudio/ARMTools/bin/../lib/gcc/arm-atollic-eabi/6.3.1/../../../../arm-atollic-eabi/lib/armv7e-m/fpu/fpv5-d16/libm.a(lib_a-e_rem_pio2.o)
 .rodata.two_over_pi
                0x0000000008007f88      0x108 /home/chen/IDEs/TrueStudio/ARMTools/bin/../lib/gcc/arm-atollic-eabi/6.3.1/../../../../arm-atollic-eabi/lib/armv7e-m/fpu/fpv5-d16/libm.a(lib_a-e_rem_pio2.o)
 .rodata.PIo2   0x0000000008008090       0x40 /home/chen/IDEs/TrueStudio/ARMTools/bin/../lib/gcc/arm-atollic-eabi/6.3.1/../../../../arm-atollic-eabi/lib/armv7e-m/fpu/fpv5-d16/libm.a(lib_a-k_rem_pio2.o)
 .rodata.init_jk
                0x00000000080080d0       0x10 /home/chen/IDEs/TrueStudio/ARMTools/bin/../lib/gcc/arm-atollic-eabi/6.3.1/../../../../arm-atollic-eabi/lib/armv7e-m/fpu/fpv5-d16/libm.a(lib_a-k_rem_pio2.o)
                0x00000000080080e0                . = ALIGN (0x4)

.rel.dyn        0x00000000080080e0        0x0
 .rel.iplt      0x00000000080080e0        0x0 /home/chen/IDEs/TrueStudio/ARMTools/bin/../lib/gcc/arm-atollic-eabi/6.3.1/armv7e-m/fpu/fpv5-d16/crtbegin.o

.ARM.extab
 *(.ARM.extab* .gnu.linkonce.armextab.*)

.ARM            0x00000000080080e0        0x0
                0x00000000080080e0                __exidx_start = .
 *(.ARM.exidx*)
                0x00000000080080e0                __exidx_end = .

.preinit_array  0x00000000080080e0        0x0
                0x00000000080080e0                PROVIDE (__preinit_array_start, .)
 *(.preinit_array*)
                0x00000000080080e0                PROVIDE (__preinit_array_end, .)

.init_array     0x00000000080080e0        0x4
                0x00000000080080e0                PROVIDE (__init_array_start, .)
 *(SORT(.init_array.*))
 *(.init_array*)
 .init_array    0x00000000080080e0        0x4 /home/chen/IDEs/TrueStudio/ARMTools/bin/../lib/gcc/arm-atollic-eabi/6.3.1/armv7e-m/fpu/fpv5-d16/crtbegin.o
                0x00000000080080e4                PROVIDE (__init_array_end, .)

.fini_array     0x00000000080080e4        0x4
                [!provide]                        PROVIDE (__fini_array_start, .)
 *(SORT(.fini_array.*))
 *(.fini_array*)
 .fini_array    0x00000000080080e4        0x4 /home/chen/IDEs/TrueStudio/ARMTools/bin/../lib/gcc/arm-atollic-eabi/6.3.1/armv7e-m/fpu/fpv5-d16/crtbegin.o
                [!provide]                        PROVIDE (__fini_array_end, .)
                0x00000000080080e8                _sidata = LOADADDR (.data)

.data           0x0000000020000000       0x18 load address 0x00000000080080e8
                0x0000000020000000                . = ALIGN (0x4)
                0x0000000020000000                _sdata = .
 *(.data)
 *(.data*)
 .data.enchall  0x0000000020000000       0x10 Application/User/ISRs/isrSensors.o
 .data.SystemCoreClock
                0x0000000020000010        0x4 Drivers/CMSIS/system_stm32f7xx.o
                0x0000000020000010                SystemCoreClock
 .data.uxCriticalNesting
                0x0000000020000014        0x4 Middlewares/FreeRTOS/port.o
                0x0000000020000018                . = ALIGN (0x4)
                0x0000000020000018                _edata = .

.igot.plt       0x0000000020000018        0x0 load address 0x0000000008008100
 .igot.plt      0x0000000020000018        0x0 /home/chen/IDEs/TrueStudio/ARMTools/bin/../lib/gcc/arm-atollic-eabi/6.3.1/armv7e-m/fpu/fpv5-d16/crtbegin.o
                0x0000000020000018                . = ALIGN (0x4)

.bss            0x0000000020000018     0x47c0 load address 0x0000000008008100
                0x0000000020000018                _sbss = .
                0x0000000020000018                __bss_start__ = _sbss
 *(.bss)
 .bss           0x0000000020000018       0x1c /home/chen/IDEs/TrueStudio/ARMTools/bin/../lib/gcc/arm-atollic-eabi/6.3.1/armv7e-m/fpu/fpv5-d16/crtbegin.o
 *(.bss*)
 .bss.flag      0x0000000020000034        0x1 Application/User/ISRs/isrSensors.o
 *fill*         0x0000000020000035        0x1 
 .bss.last5bitsdata
                0x0000000020000036        0x2 Application/User/ISRs/isrSensors.o
 .bss.motorcurrent
                0x0000000020000038       0x14 Application/User/ISRs/isrSensors.o
 .bss.xHigherPriorityTaskWoken.10943
                0x000000002000004c        0x4 Application/User/ISRs/isrSensors.o
 .bss.DFSDM1_Init
                0x0000000020000050        0x4 Application/User/dfsdm.o
 .bss.HAL_RCC_DFSDM1_CLK_ENABLED
                0x0000000020000054        0x4 Application/User/dfsdm.o
 .bss.a_dfsdm1ChannelHandle
                0x0000000020000058       0x20 Drivers/STM32F7xx_HAL_Driver/stm32f7xx_hal_dfsdm.o
                0x0000000020000058                a_dfsdm1ChannelHandle
 .bss.v_dfsdm1ChannelCounter
                0x0000000020000078        0x4 Drivers/STM32F7xx_HAL_Driver/stm32f7xx_hal_dfsdm.o
                0x0000000020000078                v_dfsdm1ChannelCounter
 .bss.pxEnd     0x000000002000007c        0x4 Middlewares/FreeRTOS/heap_4.o
 .bss.ucHeap    0x0000000020000080     0x3c00 Middlewares/FreeRTOS/heap_4.o
 .bss.xBlockAllocatedBit
                0x0000000020003c80        0x4 Middlewares/FreeRTOS/heap_4.o
 .bss.xFreeBytesRemaining
                0x0000000020003c84        0x4 Middlewares/FreeRTOS/heap_4.o
 .bss.xMinimumEverFreeBytesRemaining
                0x0000000020003c88        0x4 Middlewares/FreeRTOS/heap_4.o
 .bss.xStart    0x0000000020003c8c        0x8 Middlewares/FreeRTOS/heap_4.o
 .bss.ucMaxSysCallPriority
                0x0000000020003c94        0x1 Middlewares/FreeRTOS/port.o
 *fill*         0x0000000020003c95        0x3 
 .bss.ulMaxPRIGROUPValue
                0x0000000020003c98        0x4 Middlewares/FreeRTOS/port.o
 .bss.pxCurrentTCB
                0x0000000020003c9c        0x4 Middlewares/FreeRTOS/tasks.o
                0x0000000020003c9c                pxCurrentTCB
 .bss.pxDelayedTaskList
                0x0000000020003ca0        0x4 Middlewares/FreeRTOS/tasks.o
 .bss.pxOverflowDelayedTaskList
                0x0000000020003ca4        0x4 Middlewares/FreeRTOS/tasks.o
 .bss.pxReadyTasksLists
                0x0000000020003ca8       0x8c Middlewares/FreeRTOS/tasks.o
 .bss.uxCurrentNumberOfTasks
                0x0000000020003d34        0x4 Middlewares/FreeRTOS/tasks.o
 .bss.uxDeletedTasksWaitingCleanUp
                0x0000000020003d38        0x4 Middlewares/FreeRTOS/tasks.o
 .bss.uxPendedTicks
                0x0000000020003d3c        0x4 Middlewares/FreeRTOS/tasks.o
 .bss.uxSchedulerSuspended
                0x0000000020003d40        0x4 Middlewares/FreeRTOS/tasks.o
 .bss.uxTaskNumber
                0x0000000020003d44        0x4 Middlewares/FreeRTOS/tasks.o
 .bss.uxTopReadyPriority
                0x0000000020003d48        0x4 Middlewares/FreeRTOS/tasks.o
 .bss.xDelayedTaskList1
                0x0000000020003d4c       0x14 Middlewares/FreeRTOS/tasks.o
 .bss.xDelayedTaskList2
                0x0000000020003d60       0x14 Middlewares/FreeRTOS/tasks.o
 .bss.xIdleTaskHandle
                0x0000000020003d74        0x4 Middlewares/FreeRTOS/tasks.o
 .bss.xNextTaskUnblockTime
                0x0000000020003d78        0x4 Middlewares/FreeRTOS/tasks.o
 .bss.xNumOfOverflows
                0x0000000020003d7c        0x4 Middlewares/FreeRTOS/tasks.o
 .bss.xPendingReadyList
                0x0000000020003d80       0x14 Middlewares/FreeRTOS/tasks.o
 .bss.xSchedulerRunning
                0x0000000020003d94        0x4 Middlewares/FreeRTOS/tasks.o
 .bss.xSuspendedTaskList
                0x0000000020003d98       0x14 Middlewares/FreeRTOS/tasks.o
 .bss.xTasksWaitingTermination
                0x0000000020003dac       0x14 Middlewares/FreeRTOS/tasks.o
 .bss.xTickCount
                0x0000000020003dc0        0x4 Middlewares/FreeRTOS/tasks.o
 .bss.xYieldPending
                0x0000000020003dc4        0x4 Middlewares/FreeRTOS/tasks.o
 *(COMMON)
 COMMON         0x0000000020003dc8        0xe Application/User/ISRs/isrSensors.o
                0x0000000020003dc8                enchall_buff
                0x0000000020003dd0                order_buff
 *fill*         0x0000000020003dd6        0x2 
 COMMON         0x0000000020003dd8      0x1d8 Application/User/dfsdm.o
                0x0000000020003dd8                hdfsdm1_filter0
                0x0000000020003e2c                hdfsdm1_channel3
                0x0000000020003e64                hdma_dfsdm1_flt1
                0x0000000020003ec4                hdma_dfsdm1_flt0
                0x0000000020003f24                hdfsdm1_filter1
                0x0000000020003f78                hdfsdm1_channel0
 COMMON         0x0000000020003fb0       0x34 Application/User/freertos.o
                0x0000000020003fb0                conresQueueHandle
                0x0000000020003fb4                buzzertoneTaskHandle
                0x0000000020003fb8                buzzerQueueHandle
                0x0000000020003fbc                rythmQueueHandle
                0x0000000020003fc0                enchallTaskHandle
                0x0000000020003fc4                buzzerMutexHandle
                0x0000000020003fc8                enchallQueueHandle
                0x0000000020003fcc                controlTaskHandle
                0x0000000020003fd0                ledgreenTaskHandle
                0x0000000020003fd4                ledblueTaskHandle
                0x0000000020003fd8                shuntQueueHandle
                0x0000000020003fdc                iwdgTaskHandle
                0x0000000020003fe0                buzzerrythmTaskHandle
 COMMON         0x0000000020003fe4       0x4c Application/User/i2c.o
                0x0000000020003fe4                hi2c4
 COMMON         0x0000000020004030       0x64 Application/User/spi.o
                0x0000000020004030                hspi1
 COMMON         0x0000000020004094       0x40 Application/User/stm32f7xx_hal_timebase_TIM.o
                0x0000000020004094                htim4
 COMMON         0x00000000200040d4       0x80 Application/User/tim.o
                0x00000000200040d4                htim1
                0x0000000020004114                htim2
 COMMON         0x0000000020004154      0x280 Application/User/usart.o
                0x0000000020004154                hdma_uart4_rx
                0x00000000200041b4                huart3
                0x0000000020004224                hdma_usart1_rx
                0x0000000020004284                huart1
                0x00000000200042f4                huart8
                0x0000000020004364                huart4
 COMMON         0x00000000200043d4      0x400 Application/User/usb_otg.o
                0x00000000200043d4                hpcd_USB_OTG_HS
 COMMON         0x00000000200047d4        0x4 Drivers/STM32F7xx_HAL_Driver/stm32f7xx_hal.o
                0x00000000200047d4                uwTick
                0x00000000200047d8                . = ALIGN (0x4)
                0x00000000200047d8                _ebss = .
                0x00000000200047d8                __bss_end__ = _ebss

._user_heap_stack
                0x00000000200047d8      0x600 load address 0x0000000008008100
                0x00000000200047d8                . = ALIGN (0x4)
                [!provide]                        PROVIDE (end, .)
                [!provide]                        PROVIDE (_end, .)
                0x00000000200049d8                . = (. + _Min_Heap_Size)
 *fill*         0x00000000200047d8      0x200 
                0x0000000020004dd8                . = (. + _Min_Stack_Size)
 *fill*         0x00000000200049d8      0x400 
                0x0000000020004dd8                . = ALIGN (0x4)

/DISCARD/
 libc.a(*)
 libm.a(*)
 libgcc.a(*)

.ARM.attributes
                0x0000000000000000       0x2e
 *(.ARM.attributes)
 .ARM.attributes
                0x0000000000000000       0x20 /home/chen/IDEs/TrueStudio/ARMTools/bin/../lib/gcc/arm-atollic-eabi/6.3.1/armv7e-m/fpu/fpv5-d16/crti.o
 .ARM.attributes
                0x0000000000000020       0x32 /home/chen/IDEs/TrueStudio/ARMTools/bin/../lib/gcc/arm-atollic-eabi/6.3.1/armv7e-m/fpu/fpv5-d16/crtbegin.o
 .ARM.attributes
                0x0000000000000052       0x21 Application/TrueSTUDIO/startup_stm32f765xx.o
 .ARM.attributes
                0x0000000000000073       0x33 Application/User/Foc/controlFoc.o
 .ARM.attributes
                0x00000000000000a6       0x33 Application/User/ISRs/isrSensors.o
 .ARM.attributes
                0x00000000000000d9       0x33 Application/User/Idletasks/idletasks.o
 .ARM.attributes
                0x000000000000010c       0x33 Application/User/SYSINIT/sysinitial.o
 .ARM.attributes
                0x000000000000013f       0x33 Application/User/debug/datatraceDebug.o
 .ARM.attributes
                0x0000000000000172       0x33 Application/User/dfsdm.o
 .ARM.attributes
                0x00000000000001a5       0x33 Application/User/dma.o
 .ARM.attributes
                0x00000000000001d8       0x33 Application/User/freertos.o
 .ARM.attributes
                0x000000000000020b       0x33 Application/User/gpio.o
 .ARM.attributes
                0x000000000000023e       0x33 Application/User/i2c.o
 .ARM.attributes
                0x0000000000000271       0x33 Application/User/main.o
 .ARM.attributes
                0x00000000000002a4       0x33 Application/User/spi.o
 .ARM.attributes
                0x00000000000002d7       0x33 Application/User/stm32f7xx_hal_msp.o
 .ARM.attributes
                0x000000000000030a       0x33 Application/User/stm32f7xx_hal_timebase_TIM.o
 .ARM.attributes
                0x000000000000033d       0x33 Application/User/stm32f7xx_it.o
 .ARM.attributes
                0x0000000000000370       0x33 Application/User/tim.o
 .ARM.attributes
                0x00000000000003a3       0x33 Application/User/usart.o
 .ARM.attributes
                0x00000000000003d6       0x33 Application/User/usb_otg.o
 .ARM.attributes
                0x0000000000000409       0x33 Drivers/CMSIS/system_stm32f7xx.o
 .ARM.attributes
                0x000000000000043c       0x33 Drivers/STM32F7xx_HAL_Driver/stm32f7xx_hal.o
 .ARM.attributes
                0x000000000000046f       0x33 Drivers/STM32F7xx_HAL_Driver/stm32f7xx_hal_cortex.o
 .ARM.attributes
                0x00000000000004a2       0x33 Drivers/STM32F7xx_HAL_Driver/stm32f7xx_hal_dfsdm.o
 .ARM.attributes
                0x00000000000004d5       0x33 Drivers/STM32F7xx_HAL_Driver/stm32f7xx_hal_dma.o
 .ARM.attributes
                0x0000000000000508       0x33 Drivers/STM32F7xx_HAL_Driver/stm32f7xx_hal_gpio.o
 .ARM.attributes
                0x000000000000053b       0x33 Drivers/STM32F7xx_HAL_Driver/stm32f7xx_hal_i2c.o
 .ARM.attributes
                0x000000000000056e       0x33 Drivers/STM32F7xx_HAL_Driver/stm32f7xx_hal_i2c_ex.o
 .ARM.attributes
                0x00000000000005a1       0x33 Drivers/STM32F7xx_HAL_Driver/stm32f7xx_hal_pcd.o
 .ARM.attributes
                0x00000000000005d4       0x33 Drivers/STM32F7xx_HAL_Driver/stm32f7xx_hal_pcd_ex.o
 .ARM.attributes
                0x0000000000000607       0x33 Drivers/STM32F7xx_HAL_Driver/stm32f7xx_hal_pwr_ex.o
 .ARM.attributes
                0x000000000000063a       0x33 Drivers/STM32F7xx_HAL_Driver/stm32f7xx_hal_rcc.o
 .ARM.attributes
                0x000000000000066d       0x33 Drivers/STM32F7xx_HAL_Driver/stm32f7xx_hal_rcc_ex.o
 .ARM.attributes
                0x00000000000006a0       0x33 Drivers/STM32F7xx_HAL_Driver/stm32f7xx_hal_spi.o
 .ARM.attributes
                0x00000000000006d3       0x33 Drivers/STM32F7xx_HAL_Driver/stm32f7xx_hal_tim.o
 .ARM.attributes
                0x0000000000000706       0x33 Drivers/STM32F7xx_HAL_Driver/stm32f7xx_hal_tim_ex.o
 .ARM.attributes
                0x0000000000000739       0x33 Drivers/STM32F7xx_HAL_Driver/stm32f7xx_hal_uart.o
 .ARM.attributes
                0x000000000000076c       0x33 Drivers/STM32F7xx_HAL_Driver/stm32f7xx_ll_usb.o
 .ARM.attributes
                0x000000000000079f       0x33 Middlewares/FreeRTOS/cmsis_os.o
 .ARM.attributes
                0x00000000000007d2       0x33 Middlewares/FreeRTOS/heap_4.o
 .ARM.attributes
                0x0000000000000805       0x33 Middlewares/FreeRTOS/list.o
 .ARM.attributes
                0x0000000000000838       0x33 Middlewares/FreeRTOS/port.o
 .ARM.attributes
                0x000000000000086b       0x33 Middlewares/FreeRTOS/queue.o
 .ARM.attributes
                0x000000000000089e       0x33 Middlewares/FreeRTOS/tasks.o
 .ARM.attributes
                0x00000000000008d1       0x32 /home/chen/IDEs/TrueStudio/ARMTools/bin/../lib/gcc/arm-atollic-eabi/6.3.1/../../../../arm-atollic-eabi/lib/armv7e-m/fpu/fpv5-d16/libm.a(lib_a-s_cos.o)
 .ARM.attributes
                0x0000000000000903       0x32 /home/chen/IDEs/TrueStudio/ARMTools/bin/../lib/gcc/arm-atollic-eabi/6.3.1/../../../../arm-atollic-eabi/lib/armv7e-m/fpu/fpv5-d16/libm.a(lib_a-s_sin.o)
 .ARM.attributes
                0x0000000000000935       0x32 /home/chen/IDEs/TrueStudio/ARMTools/bin/../lib/gcc/arm-atollic-eabi/6.3.1/../../../../arm-atollic-eabi/lib/armv7e-m/fpu/fpv5-d16/libm.a(lib_a-e_rem_pio2.o)
 .ARM.attributes
                0x0000000000000967       0x32 /home/chen/IDEs/TrueStudio/ARMTools/bin/../lib/gcc/arm-atollic-eabi/6.3.1/../../../../arm-atollic-eabi/lib/armv7e-m/fpu/fpv5-d16/libm.a(lib_a-k_cos.o)
 .ARM.attributes
                0x0000000000000999       0x32 /home/chen/IDEs/TrueStudio/ARMTools/bin/../lib/gcc/arm-atollic-eabi/6.3.1/../../../../arm-atollic-eabi/lib/armv7e-m/fpu/fpv5-d16/libm.a(lib_a-k_rem_pio2.o)
 .ARM.attributes
                0x00000000000009cb       0x32 /home/chen/IDEs/TrueStudio/ARMTools/bin/../lib/gcc/arm-atollic-eabi/6.3.1/../../../../arm-atollic-eabi/lib/armv7e-m/fpu/fpv5-d16/libm.a(lib_a-k_sin.o)
 .ARM.attributes
                0x00000000000009fd       0x32 /home/chen/IDEs/TrueStudio/ARMTools/bin/../lib/gcc/arm-atollic-eabi/6.3.1/../../../../arm-atollic-eabi/lib/armv7e-m/fpu/fpv5-d16/libm.a(lib_a-s_fabs.o)
 .ARM.attributes
                0x0000000000000a2f       0x32 /home/chen/IDEs/TrueStudio/ARMTools/bin/../lib/gcc/arm-atollic-eabi/6.3.1/../../../../arm-atollic-eabi/lib/armv7e-m/fpu/fpv5-d16/libm.a(lib_a-s_floor.o)
 .ARM.attributes
                0x0000000000000a61       0x32 /home/chen/IDEs/TrueStudio/ARMTools/bin/../lib/gcc/arm-atollic-eabi/6.3.1/../../../../arm-atollic-eabi/lib/armv7e-m/fpu/fpv5-d16/libm.a(lib_a-s_scalbn.o)
 .ARM.attributes
                0x0000000000000a93       0x32 /home/chen/IDEs/TrueStudio/ARMTools/bin/../lib/gcc/arm-atollic-eabi/6.3.1/../../../../arm-atollic-eabi/lib/armv7e-m/fpu/fpv5-d16/libm.a(lib_a-s_copysign.o)
 .ARM.attributes
                0x0000000000000ac5       0x32 /home/chen/IDEs/TrueStudio/ARMTools/bin/../lib/gcc/arm-atollic-eabi/6.3.1/../../../../arm-atollic-eabi/lib/armv7e-m/fpu/fpv5-d16/libc_nano.a(lib_a-init.o)
 .ARM.attributes
                0x0000000000000af7       0x32 /home/chen/IDEs/TrueStudio/ARMTools/bin/../lib/gcc/arm-atollic-eabi/6.3.1/../../../../arm-atollic-eabi/lib/armv7e-m/fpu/fpv5-d16/libc_nano.a(lib_a-memcpy-stub.o)
 .ARM.attributes
                0x0000000000000b29       0x32 /home/chen/IDEs/TrueStudio/ARMTools/bin/../lib/gcc/arm-atollic-eabi/6.3.1/../../../../arm-atollic-eabi/lib/armv7e-m/fpu/fpv5-d16/libc_nano.a(lib_a-memset.o)
 .ARM.attributes
                0x0000000000000b5b       0x20 /home/chen/IDEs/TrueStudio/ARMTools/bin/../lib/gcc/arm-atollic-eabi/6.3.1/armv7e-m/fpu/fpv5-d16/crtn.o
OUTPUT(jsk_foc_f7.elf elf32-littlearm)

.debug_line     0x0000000000000000    0x12cdc
 .debug_line    0x0000000000000000       0x7a Application/TrueSTUDIO/startup_stm32f765xx.o
 .debug_line    0x000000000000007a      0x514 Application/User/Foc/controlFoc.o
 .debug_line    0x000000000000058e      0x50e Application/User/ISRs/isrSensors.o
 .debug_line    0x0000000000000a9c      0x465 Application/User/Idletasks/idletasks.o
 .debug_line    0x0000000000000f01      0x37f Application/User/SYSINIT/sysinitial.o
 .debug_line    0x0000000000001280      0x7eb Application/User/debug/datatraceDebug.o
 .debug_line    0x0000000000001a6b      0x3f5 Application/User/dfsdm.o
 .debug_line    0x0000000000001e60      0x283 Application/User/dma.o
 .debug_line    0x00000000000020e3      0x232 Application/User/freertos.o
 .debug_line    0x0000000000002315      0x26a Application/User/gpio.o
 .debug_line    0x000000000000257f      0x2fa Application/User/i2c.o
 .debug_line    0x0000000000002879      0x513 Application/User/main.o
 .debug_line    0x0000000000002d8c      0x309 Application/User/spi.o
 .debug_line    0x0000000000003095      0x244 Application/User/stm32f7xx_hal_msp.o
 .debug_line    0x00000000000032d9      0x2fc Application/User/stm32f7xx_hal_timebase_TIM.o
 .debug_line    0x00000000000035d5      0x351 Application/User/stm32f7xx_it.o
 .debug_line    0x0000000000003926      0x414 Application/User/tim.o
 .debug_line    0x0000000000003d3a      0x47a Application/User/usart.o
 .debug_line    0x00000000000041b4      0x309 Application/User/usb_otg.o
 .debug_line    0x00000000000044bd      0x23c Drivers/CMSIS/system_stm32f7xx.o
 .debug_line    0x00000000000046f9      0x44e Drivers/STM32F7xx_HAL_Driver/stm32f7xx_hal.o
 .debug_line    0x0000000000004b47      0x4db Drivers/STM32F7xx_HAL_Driver/stm32f7xx_hal_cortex.o
 .debug_line    0x0000000000005022      0xfb1 Drivers/STM32F7xx_HAL_Driver/stm32f7xx_hal_dfsdm.o
 .debug_line    0x0000000000005fd3      0x757 Drivers/STM32F7xx_HAL_Driver/stm32f7xx_hal_dma.o
 .debug_line    0x000000000000672a      0x4a3 Drivers/STM32F7xx_HAL_Driver/stm32f7xx_hal_gpio.o
 .debug_line    0x0000000000006bcd     0x2056 Drivers/STM32F7xx_HAL_Driver/stm32f7xx_hal_i2c.o
 .debug_line    0x0000000000008c23      0x382 Drivers/STM32F7xx_HAL_Driver/stm32f7xx_hal_i2c_ex.o
 .debug_line    0x0000000000008fa5      0x8e5 Drivers/STM32F7xx_HAL_Driver/stm32f7xx_hal_pcd.o
 .debug_line    0x000000000000988a      0x356 Drivers/STM32F7xx_HAL_Driver/stm32f7xx_hal_pcd_ex.o
 .debug_line    0x0000000000009be0      0x42a Drivers/STM32F7xx_HAL_Driver/stm32f7xx_hal_pwr_ex.o
 .debug_line    0x000000000000a00a      0x67e Drivers/STM32F7xx_HAL_Driver/stm32f7xx_hal_rcc.o
 .debug_line    0x000000000000a688      0x470 Drivers/STM32F7xx_HAL_Driver/stm32f7xx_hal_rcc_ex.o
 .debug_line    0x000000000000aaf8     0x128e Drivers/STM32F7xx_HAL_Driver/stm32f7xx_hal_spi.o
 .debug_line    0x000000000000bd86     0x1b93 Drivers/STM32F7xx_HAL_Driver/stm32f7xx_hal_tim.o
 .debug_line    0x000000000000d919      0xbdc Drivers/STM32F7xx_HAL_Driver/stm32f7xx_hal_tim_ex.o
 .debug_line    0x000000000000e4f5     0x1277 Drivers/STM32F7xx_HAL_Driver/stm32f7xx_hal_uart.o
 .debug_line    0x000000000000f76c      0xb32 Drivers/STM32F7xx_HAL_Driver/stm32f7xx_ll_usb.o
 .debug_line    0x000000000001029e      0xa3c Middlewares/FreeRTOS/cmsis_os.o
 .debug_line    0x0000000000010cda      0x3d5 Middlewares/FreeRTOS/heap_4.o
 .debug_line    0x00000000000110af      0x332 Middlewares/FreeRTOS/list.o
 .debug_line    0x00000000000113e1      0x33b Middlewares/FreeRTOS/port.o
 .debug_line    0x000000000001171c      0x8f0 Middlewares/FreeRTOS/queue.o
 .debug_line    0x000000000001200c      0xcd0 Middlewares/FreeRTOS/tasks.o

.debug_info     0x0000000000000000    0x44697
 .debug_info    0x0000000000000000       0x85 Application/TrueSTUDIO/startup_stm32f765xx.o
 .debug_info    0x0000000000000085     0x1b5a Application/User/Foc/controlFoc.o
 .debug_info    0x0000000000001bdf     0x17c6 Application/User/ISRs/isrSensors.o
 .debug_info    0x00000000000033a5     0x1594 Application/User/Idletasks/idletasks.o
 .debug_info    0x0000000000004939     0x218f Application/User/SYSINIT/sysinitial.o
 .debug_info    0x0000000000006ac8     0x1654 Application/User/debug/datatraceDebug.o
 .debug_info    0x000000000000811c     0x1798 Application/User/dfsdm.o
 .debug_info    0x00000000000098b4     0x1147 Application/User/dma.o
 .debug_info    0x000000000000a9fb      0x620 Application/User/freertos.o
 .debug_info    0x000000000000b01b      0xdaa Application/User/gpio.o
 .debug_info    0x000000000000bdc5     0x12fa Application/User/i2c.o
 .debug_info    0x000000000000d0bf     0x2fe7 Application/User/main.o
 .debug_info    0x00000000000100a6     0x1272 Application/User/spi.o
 .debug_info    0x0000000000011318      0xcf1 Application/User/stm32f7xx_hal_msp.o
 .debug_info    0x0000000000012009     0x14b9 Application/User/stm32f7xx_hal_timebase_TIM.o
 .debug_info    0x00000000000134c2      0xfab Application/User/stm32f7xx_it.o
 .debug_info    0x000000000001446d     0x1925 Application/User/tim.o
 .debug_info    0x0000000000015d92     0x156d Application/User/usart.o
 .debug_info    0x00000000000172ff     0x1281 Application/User/usb_otg.o
 .debug_info    0x0000000000018580      0xf05 Drivers/CMSIS/system_stm32f7xx.o
 .debug_info    0x0000000000019485     0x1266 Drivers/STM32F7xx_HAL_Driver/stm32f7xx_hal.o
 .debug_info    0x000000000001a6eb     0x1998 Drivers/STM32F7xx_HAL_Driver/stm32f7xx_hal_cortex.o
 .debug_info    0x000000000001c083     0x292f Drivers/STM32F7xx_HAL_Driver/stm32f7xx_hal_dfsdm.o
 .debug_info    0x000000000001e9b2     0x12f0 Drivers/STM32F7xx_HAL_Driver/stm32f7xx_hal_dma.o
 .debug_info    0x000000000001fca2      0xfbe Drivers/STM32F7xx_HAL_Driver/stm32f7xx_hal_gpio.o
 .debug_info    0x0000000000020c60     0x4bb6 Drivers/STM32F7xx_HAL_Driver/stm32f7xx_hal_i2c.o
 .debug_info    0x0000000000025816     0x11b6 Drivers/STM32F7xx_HAL_Driver/stm32f7xx_hal_i2c_ex.o
 .debug_info    0x00000000000269cc     0x1e1e Drivers/STM32F7xx_HAL_Driver/stm32f7xx_hal_pcd.o
 .debug_info    0x00000000000287ea      0xf76 Drivers/STM32F7xx_HAL_Driver/stm32f7xx_hal_pcd_ex.o
 .debug_info    0x0000000000029760     0x1228 Drivers/STM32F7xx_HAL_Driver/stm32f7xx_hal_pwr_ex.o
 .debug_info    0x000000000002a988     0x134c Drivers/STM32F7xx_HAL_Driver/stm32f7xx_hal_rcc.o
 .debug_info    0x000000000002bcd4      0xf46 Drivers/STM32F7xx_HAL_Driver/stm32f7xx_hal_rcc_ex.o
 .debug_info    0x000000000002cc1a     0x3376 Drivers/STM32F7xx_HAL_Driver/stm32f7xx_hal_spi.o
 .debug_info    0x000000000002ff90     0x445a Drivers/STM32F7xx_HAL_Driver/stm32f7xx_hal_tim.o
 .debug_info    0x00000000000343ea     0x211e Drivers/STM32F7xx_HAL_Driver/stm32f7xx_hal_tim_ex.o
 .debug_info    0x0000000000036508     0x28b3 Drivers/STM32F7xx_HAL_Driver/stm32f7xx_hal_uart.o
 .debug_info    0x0000000000038dbb     0x2331 Drivers/STM32F7xx_HAL_Driver/stm32f7xx_ll_usb.o
 .debug_info    0x000000000003b0ec     0x295e Middlewares/FreeRTOS/cmsis_os.o
 .debug_info    0x000000000003da4a      0xc5c Middlewares/FreeRTOS/heap_4.o
 .debug_info    0x000000000003e6a6      0xabe Middlewares/FreeRTOS/list.o
 .debug_info    0x000000000003f164      0x4e8 Middlewares/FreeRTOS/port.o
 .debug_info    0x000000000003f64c     0x242a Middlewares/FreeRTOS/queue.o
 .debug_info    0x0000000000041a76     0x2c21 Middlewares/FreeRTOS/tasks.o

.debug_abbrev   0x0000000000000000     0x7605
 .debug_abbrev  0x0000000000000000       0x12 Application/TrueSTUDIO/startup_stm32f765xx.o
 .debug_abbrev  0x0000000000000012      0x2dd Application/User/Foc/controlFoc.o
 .debug_abbrev  0x00000000000002ef      0x267 Application/User/ISRs/isrSensors.o
 .debug_abbrev  0x0000000000000556      0x265 Application/User/Idletasks/idletasks.o
 .debug_abbrev  0x00000000000007bb      0x21a Application/User/SYSINIT/sysinitial.o
 .debug_abbrev  0x00000000000009d5      0x225 Application/User/debug/datatraceDebug.o
 .debug_abbrev  0x0000000000000bfa      0x27b Application/User/dfsdm.o
 .debug_abbrev  0x0000000000000e75      0x200 Application/User/dma.o
 .debug_abbrev  0x0000000000001075      0x17b Application/User/freertos.o
 .debug_abbrev  0x00000000000011f0      0x1f7 Application/User/gpio.o
 .debug_abbrev  0x00000000000013e7      0x239 Application/User/i2c.o
 .debug_abbrev  0x0000000000001620      0x332 Application/User/main.o
 .debug_abbrev  0x0000000000001952      0x227 Application/User/spi.o
 .debug_abbrev  0x0000000000001b79      0x1d3 Application/User/stm32f7xx_hal_msp.o
 .debug_abbrev  0x0000000000001d4c      0x258 Application/User/stm32f7xx_hal_timebase_TIM.o
 .debug_abbrev  0x0000000000001fa4      0x215 Application/User/stm32f7xx_it.o
 .debug_abbrev  0x00000000000021b9      0x2d5 Application/User/tim.o
 .debug_abbrev  0x000000000000248e      0x28e Application/User/usart.o
 .debug_abbrev  0x000000000000271c      0x241 Application/User/usb_otg.o
 .debug_abbrev  0x000000000000295d      0x1e6 Drivers/CMSIS/system_stm32f7xx.o
 .debug_abbrev  0x0000000000002b43      0x2a4 Drivers/STM32F7xx_HAL_Driver/stm32f7xx_hal.o
 .debug_abbrev  0x0000000000002de7      0x390 Drivers/STM32F7xx_HAL_Driver/stm32f7xx_hal_cortex.o
 .debug_abbrev  0x0000000000003177      0x373 Drivers/STM32F7xx_HAL_Driver/stm32f7xx_hal_dfsdm.o
 .debug_abbrev  0x00000000000034ea      0x35e Drivers/STM32F7xx_HAL_Driver/stm32f7xx_hal_dma.o
 .debug_abbrev  0x0000000000003848      0x268 Drivers/STM32F7xx_HAL_Driver/stm32f7xx_hal_gpio.o
 .debug_abbrev  0x0000000000003ab0      0x3fb Drivers/STM32F7xx_HAL_Driver/stm32f7xx_hal_i2c.o
 .debug_abbrev  0x0000000000003eab      0x209 Drivers/STM32F7xx_HAL_Driver/stm32f7xx_hal_i2c_ex.o
 .debug_abbrev  0x00000000000040b4      0x3aa Drivers/STM32F7xx_HAL_Driver/stm32f7xx_hal_pcd.o
 .debug_abbrev  0x000000000000445e      0x25a Drivers/STM32F7xx_HAL_Driver/stm32f7xx_hal_pcd_ex.o
 .debug_abbrev  0x00000000000046b8      0x2ab Drivers/STM32F7xx_HAL_Driver/stm32f7xx_hal_pwr_ex.o
 .debug_abbrev  0x0000000000004963      0x35a Drivers/STM32F7xx_HAL_Driver/stm32f7xx_hal_rcc.o
 .debug_abbrev  0x0000000000004cbd      0x25f Drivers/STM32F7xx_HAL_Driver/stm32f7xx_hal_rcc_ex.o
 .debug_abbrev  0x0000000000004f1c      0x3ee Drivers/STM32F7xx_HAL_Driver/stm32f7xx_hal_spi.o
 .debug_abbrev  0x000000000000530a      0x3c6 Drivers/STM32F7xx_HAL_Driver/stm32f7xx_hal_tim.o
 .debug_abbrev  0x00000000000056d0      0x373 Drivers/STM32F7xx_HAL_Driver/stm32f7xx_hal_tim_ex.o
 .debug_abbrev  0x0000000000005a43      0x3ce Drivers/STM32F7xx_HAL_Driver/stm32f7xx_hal_uart.o
 .debug_abbrev  0x0000000000005e11      0x417 Drivers/STM32F7xx_HAL_Driver/stm32f7xx_ll_usb.o
 .debug_abbrev  0x0000000000006228      0x48f Middlewares/FreeRTOS/cmsis_os.o
 .debug_abbrev  0x00000000000066b7      0x314 Middlewares/FreeRTOS/heap_4.o
 .debug_abbrev  0x00000000000069cb      0x1e3 Middlewares/FreeRTOS/list.o
 .debug_abbrev  0x0000000000006bae      0x211 Middlewares/FreeRTOS/port.o
 .debug_abbrev  0x0000000000006dbf      0x3fa Middlewares/FreeRTOS/queue.o
 .debug_abbrev  0x00000000000071b9      0x44c Middlewares/FreeRTOS/tasks.o

.debug_aranges  0x0000000000000000     0x1860
 .debug_aranges
                0x0000000000000000       0x28 Application/TrueSTUDIO/startup_stm32f765xx.o
 .debug_aranges
                0x0000000000000028       0x20 Application/User/Foc/controlFoc.o
 .debug_aranges
                0x0000000000000048       0x28 Application/User/ISRs/isrSensors.o
 .debug_aranges
                0x0000000000000070       0x40 Application/User/Idletasks/idletasks.o
 .debug_aranges
                0x00000000000000b0       0x20 Application/User/SYSINIT/sysinitial.o
 .debug_aranges
                0x00000000000000d0       0x20 Application/User/debug/datatraceDebug.o
 .debug_aranges
                0x00000000000000f0       0x40 Application/User/dfsdm.o
 .debug_aranges
                0x0000000000000130       0x20 Application/User/dma.o
 .debug_aranges
                0x0000000000000150       0x28 Application/User/freertos.o
 .debug_aranges
                0x0000000000000178       0x20 Application/User/gpio.o
 .debug_aranges
                0x0000000000000198       0x30 Application/User/i2c.o
 .debug_aranges
                0x00000000000001c8       0x38 Application/User/main.o
 .debug_aranges
                0x0000000000000200       0x30 Application/User/spi.o
 .debug_aranges
                0x0000000000000230       0x20 Application/User/stm32f7xx_hal_msp.o
 .debug_aranges
                0x0000000000000250       0x30 Application/User/stm32f7xx_hal_timebase_TIM.o
 .debug_aranges
                0x0000000000000280       0x70 Application/User/stm32f7xx_it.o
 .debug_aranges
                0x00000000000002f0       0x40 Application/User/tim.o
 .debug_aranges
                0x0000000000000330       0x48 Application/User/usart.o
 .debug_aranges
                0x0000000000000378       0x30 Application/User/usb_otg.o
 .debug_aranges
                0x00000000000003a8       0x28 Drivers/CMSIS/system_stm32f7xx.o
 .debug_aranges
                0x00000000000003d0       0xf0 Drivers/STM32F7xx_HAL_Driver/stm32f7xx_hal.o
 .debug_aranges
                0x00000000000004c0       0xa8 Drivers/STM32F7xx_HAL_Driver/stm32f7xx_hal_cortex.o
 .debug_aranges
                0x0000000000000568      0x1c8 Drivers/STM32F7xx_HAL_Driver/stm32f7xx_hal_dfsdm.o
 .debug_aranges
                0x0000000000000730       0x78 Drivers/STM32F7xx_HAL_Driver/stm32f7xx_hal_dma.o
 .debug_aranges
                0x00000000000007a8       0x58 Drivers/STM32F7xx_HAL_Driver/stm32f7xx_hal_gpio.o
 .debug_aranges
                0x0000000000000800      0x1b8 Drivers/STM32F7xx_HAL_Driver/stm32f7xx_hal_i2c.o
 .debug_aranges
                0x00000000000009b8       0x38 Drivers/STM32F7xx_HAL_Driver/stm32f7xx_hal_i2c_ex.o
 .debug_aranges
                0x00000000000009f0       0xc0 Drivers/STM32F7xx_HAL_Driver/stm32f7xx_hal_pcd.o
 .debug_aranges
                0x0000000000000ab0       0x40 Drivers/STM32F7xx_HAL_Driver/stm32f7xx_hal_pcd_ex.o
 .debug_aranges
                0x0000000000000af0       0x80 Drivers/STM32F7xx_HAL_Driver/stm32f7xx_hal_pwr_ex.o
 .debug_aranges
                0x0000000000000b70       0x88 Drivers/STM32F7xx_HAL_Driver/stm32f7xx_hal_rcc.o
 .debug_aranges
                0x0000000000000bf8       0x30 Drivers/STM32F7xx_HAL_Driver/stm32f7xx_hal_rcc_ex.o
 .debug_aranges
                0x0000000000000c28      0x178 Drivers/STM32F7xx_HAL_Driver/stm32f7xx_hal_spi.o
 .debug_aranges
                0x0000000000000da0      0x250 Drivers/STM32F7xx_HAL_Driver/stm32f7xx_hal_tim.o
 .debug_aranges
                0x0000000000000ff0      0x110 Drivers/STM32F7xx_HAL_Driver/stm32f7xx_hal_tim_ex.o
 .debug_aranges
                0x0000000000001100      0x138 Drivers/STM32F7xx_HAL_Driver/stm32f7xx_hal_uart.o
 .debug_aranges
                0x0000000000001238      0x178 Drivers/STM32F7xx_HAL_Driver/stm32f7xx_ll_usb.o
 .debug_aranges
                0x00000000000013b0      0x190 Middlewares/FreeRTOS/cmsis_os.o
 .debug_aranges
                0x0000000000001540       0x48 Middlewares/FreeRTOS/heap_4.o
 .debug_aranges
                0x0000000000001588       0x40 Middlewares/FreeRTOS/list.o
 .debug_aranges
                0x00000000000015c8       0x80 Middlewares/FreeRTOS/port.o
 .debug_aranges
                0x0000000000001648       0xc0 Middlewares/FreeRTOS/queue.o
 .debug_aranges
                0x0000000000001708      0x158 Middlewares/FreeRTOS/tasks.o

.debug_ranges   0x0000000000000000     0x4d60
 .debug_ranges  0x0000000000000000       0x20 Application/TrueSTUDIO/startup_stm32f765xx.o
 .debug_ranges  0x0000000000000020      0x128 Application/User/Foc/controlFoc.o
 .debug_ranges  0x0000000000000148      0x138 Application/User/ISRs/isrSensors.o
 .debug_ranges  0x0000000000000280       0x60 Application/User/Idletasks/idletasks.o
 .debug_ranges  0x00000000000002e0       0x10 Application/User/SYSINIT/sysinitial.o
 .debug_ranges  0x00000000000002f0       0x58 Application/User/debug/datatraceDebug.o
 .debug_ranges  0x0000000000000348       0x30 Application/User/dfsdm.o
 .debug_ranges  0x0000000000000378       0x30 Application/User/dma.o
 .debug_ranges  0x00000000000003a8       0x18 Application/User/freertos.o
 .debug_ranges  0x00000000000003c0       0x50 Application/User/gpio.o
 .debug_ranges  0x0000000000000410       0x20 Application/User/i2c.o
 .debug_ranges  0x0000000000000430       0xa0 Application/User/main.o
 .debug_ranges  0x00000000000004d0       0x60 Application/User/spi.o
 .debug_ranges  0x0000000000000530       0x10 Application/User/stm32f7xx_hal_msp.o
 .debug_ranges  0x0000000000000540       0x48 Application/User/stm32f7xx_hal_timebase_TIM.o
 .debug_ranges  0x0000000000000588       0x60 Application/User/stm32f7xx_it.o
 .debug_ranges  0x00000000000005e8       0x70 Application/User/tim.o
 .debug_ranges  0x0000000000000658      0x110 Application/User/usart.o
 .debug_ranges  0x0000000000000768       0x20 Application/User/usb_otg.o
 .debug_ranges  0x0000000000000788       0x18 Drivers/CMSIS/system_stm32f7xx.o
 .debug_ranges  0x00000000000007a0       0xe0 Drivers/STM32F7xx_HAL_Driver/stm32f7xx_hal.o
 .debug_ranges  0x0000000000000880      0x180 Drivers/STM32F7xx_HAL_Driver/stm32f7xx_hal_cortex.o
 .debug_ranges  0x0000000000000a00      0x678 Drivers/STM32F7xx_HAL_Driver/stm32f7xx_hal_dfsdm.o
 .debug_ranges  0x0000000000001078      0x148 Drivers/STM32F7xx_HAL_Driver/stm32f7xx_hal_dma.o
 .debug_ranges  0x00000000000011c0       0x78 Drivers/STM32F7xx_HAL_Driver/stm32f7xx_hal_gpio.o
 .debug_ranges  0x0000000000001238     0x1050 Drivers/STM32F7xx_HAL_Driver/stm32f7xx_hal_i2c.o
 .debug_ranges  0x0000000000002288       0x58 Drivers/STM32F7xx_HAL_Driver/stm32f7xx_hal_i2c_ex.o
 .debug_ranges  0x00000000000022e0       0xe8 Drivers/STM32F7xx_HAL_Driver/stm32f7xx_hal_pcd.o
 .debug_ranges  0x00000000000023c8       0x30 Drivers/STM32F7xx_HAL_Driver/stm32f7xx_hal_pcd_ex.o
 .debug_ranges  0x00000000000023f8      0x130 Drivers/STM32F7xx_HAL_Driver/stm32f7xx_hal_pwr_ex.o
 .debug_ranges  0x0000000000002528      0x138 Drivers/STM32F7xx_HAL_Driver/stm32f7xx_hal_rcc.o
 .debug_ranges  0x0000000000002660       0x40 Drivers/STM32F7xx_HAL_Driver/stm32f7xx_hal_rcc_ex.o
 .debug_ranges  0x00000000000026a0      0x938 Drivers/STM32F7xx_HAL_Driver/stm32f7xx_hal_spi.o
 .debug_ranges  0x0000000000002fd8      0x880 Drivers/STM32F7xx_HAL_Driver/stm32f7xx_hal_tim.o
 .debug_ranges  0x0000000000003858      0x268 Drivers/STM32F7xx_HAL_Driver/stm32f7xx_hal_tim_ex.o
 .debug_ranges  0x0000000000003ac0      0x648 Drivers/STM32F7xx_HAL_Driver/stm32f7xx_hal_uart.o
 .debug_ranges  0x0000000000004108      0x238 Drivers/STM32F7xx_HAL_Driver/stm32f7xx_ll_usb.o
 .debug_ranges  0x0000000000004340      0x308 Middlewares/FreeRTOS/cmsis_os.o
 .debug_ranges  0x0000000000004648       0x38 Middlewares/FreeRTOS/heap_4.o
 .debug_ranges  0x0000000000004680       0x30 Middlewares/FreeRTOS/list.o
 .debug_ranges  0x00000000000046b0       0x98 Middlewares/FreeRTOS/port.o
 .debug_ranges  0x0000000000004748      0x200 Middlewares/FreeRTOS/queue.o
 .debug_ranges  0x0000000000004948      0x418 Middlewares/FreeRTOS/tasks.o

.debug_loc      0x0000000000000000    0x1ff49
 .debug_loc     0x0000000000000000      0x585 Application/User/Foc/controlFoc.o
 .debug_loc     0x0000000000000585      0x3ff Application/User/ISRs/isrSensors.o
 .debug_loc     0x0000000000000984      0x1f7 Application/User/Idletasks/idletasks.o
 .debug_loc     0x0000000000000b7b      0x268 Application/User/debug/datatraceDebug.o
 .debug_loc     0x0000000000000de3       0xad Application/User/dfsdm.o
 .debug_loc     0x0000000000000e90       0x21 Application/User/freertos.o
 .debug_loc     0x0000000000000eb1       0x42 Application/User/i2c.o
 .debug_loc     0x0000000000000ef3       0x34 Application/User/main.o
 .debug_loc     0x0000000000000f27       0x42 Application/User/spi.o
 .debug_loc     0x0000000000000f69       0x8b Application/User/stm32f7xx_hal_timebase_TIM.o
 .debug_loc     0x0000000000000ff4       0xe4 Application/User/tim.o
 .debug_loc     0x00000000000010d8      0x117 Application/User/usart.o
 .debug_loc     0x00000000000011ef       0x42 Application/User/usb_otg.o
 .debug_loc     0x0000000000001231      0x14c Drivers/CMSIS/system_stm32f7xx.o
 .debug_loc     0x000000000000137d       0x6a Drivers/STM32F7xx_HAL_Driver/stm32f7xx_hal.o
 .debug_loc     0x00000000000013e7      0x634 Drivers/STM32F7xx_HAL_Driver/stm32f7xx_hal_cortex.o
 .debug_loc     0x0000000000001a1b     0x275e Drivers/STM32F7xx_HAL_Driver/stm32f7xx_hal_dfsdm.o
 .debug_loc     0x0000000000004179      0x92e Drivers/STM32F7xx_HAL_Driver/stm32f7xx_hal_dma.o
 .debug_loc     0x0000000000004aa7      0x43b Drivers/STM32F7xx_HAL_Driver/stm32f7xx_hal_gpio.o
 .debug_loc     0x0000000000004ee2     0x5dc4 Drivers/STM32F7xx_HAL_Driver/stm32f7xx_hal_i2c.o
 .debug_loc     0x000000000000aca6      0x13b Drivers/STM32F7xx_HAL_Driver/stm32f7xx_hal_i2c_ex.o
 .debug_loc     0x000000000000ade1     0x11bd Drivers/STM32F7xx_HAL_Driver/stm32f7xx_hal_pcd.o
 .debug_loc     0x000000000000bf9e      0x13f Drivers/STM32F7xx_HAL_Driver/stm32f7xx_hal_pcd_ex.o
 .debug_loc     0x000000000000c0dd      0x257 Drivers/STM32F7xx_HAL_Driver/stm32f7xx_hal_pwr_ex.o
 .debug_loc     0x000000000000c334      0x4dc Drivers/STM32F7xx_HAL_Driver/stm32f7xx_hal_rcc.o
 .debug_loc     0x000000000000c810      0x559 Drivers/STM32F7xx_HAL_Driver/stm32f7xx_hal_rcc_ex.o
 .debug_loc     0x000000000000cd69     0x3b84 Drivers/STM32F7xx_HAL_Driver/stm32f7xx_hal_spi.o
 .debug_loc     0x00000000000108ed     0x54ee Drivers/STM32F7xx_HAL_Driver/stm32f7xx_hal_tim.o
 .debug_loc     0x0000000000015ddb     0x1a86 Drivers/STM32F7xx_HAL_Driver/stm32f7xx_hal_tim_ex.o
 .debug_loc     0x0000000000017861     0x1e88 Drivers/STM32F7xx_HAL_Driver/stm32f7xx_hal_uart.o
 .debug_loc     0x00000000000196e9     0x1dcb Drivers/STM32F7xx_HAL_Driver/stm32f7xx_ll_usb.o
 .debug_loc     0x000000000001b4b4     0x14ca Middlewares/FreeRTOS/cmsis_os.o
 .debug_loc     0x000000000001c97e      0x299 Middlewares/FreeRTOS/heap_4.o
 .debug_loc     0x000000000001cc17       0x69 Middlewares/FreeRTOS/list.o
 .debug_loc     0x000000000001cc80       0xc4 Middlewares/FreeRTOS/port.o
 .debug_loc     0x000000000001cd44     0x162d Middlewares/FreeRTOS/queue.o
 .debug_loc     0x000000000001e371     0x1bd8 Middlewares/FreeRTOS/tasks.o

.debug_str      0x0000000000000000     0x9701
 .debug_str     0x0000000000000000     0x11a2 Application/User/Foc/controlFoc.o
                                       0x1316 (size before relaxing)
 .debug_str     0x00000000000011a2      0x3e8 Application/User/ISRs/isrSensors.o
                                       0x1300 (size before relaxing)
 .debug_str     0x000000000000158a      0x112 Application/User/Idletasks/idletasks.o
                                        0xedb (size before relaxing)
 .debug_str     0x000000000000169c      0x7fc Application/User/SYSINIT/sysinitial.o
                                       0x1b19 (size before relaxing)
 .debug_str     0x0000000000001e98       0x66 Application/User/debug/datatraceDebug.o
                                       0x1264 (size before relaxing)
 .debug_str     0x0000000000001efe      0x29d Application/User/dfsdm.o
                                       0x112d (size before relaxing)
 .debug_str     0x000000000000219b      0x665 Application/User/dma.o
                                       0x1038 (size before relaxing)
 .debug_str     0x0000000000002800      0x377 Application/User/freertos.o
                                        0x687 (size before relaxing)
 .debug_str     0x0000000000002b77       0x4f Application/User/gpio.o
                                        0x835 (size before relaxing)
 .debug_str     0x0000000000002bc6       0x94 Application/User/i2c.o
                                        0xdb9 (size before relaxing)
 .debug_str     0x0000000000002c5a      0x6d7 Application/User/main.o
                                       0x290e (size before relaxing)
 .debug_str     0x0000000000003331       0x4c Application/User/spi.o
                                        0xcc8 (size before relaxing)
 .debug_str     0x000000000000337d       0x4a Application/User/stm32f7xx_hal_msp.o
                                        0xcb4 (size before relaxing)
 .debug_str     0x00000000000033c7       0xfe Application/User/stm32f7xx_hal_timebase_TIM.o
                                       0x1358 (size before relaxing)
 .debug_str     0x00000000000034c5      0x147 Application/User/stm32f7xx_it.o
                                        0xbe3 (size before relaxing)
 .debug_str     0x000000000000360c      0x2c8 Application/User/tim.o
                                        0xf5a (size before relaxing)
 .debug_str     0x00000000000038d4       0x52 Application/User/usart.o
                                        0xdec (size before relaxing)
 .debug_str     0x0000000000003926       0x50 Application/User/usb_otg.o
                                        0xc57 (size before relaxing)
 .debug_str     0x0000000000003976       0x5c Drivers/CMSIS/system_stm32f7xx.o
                                        0x8c9 (size before relaxing)
 .debug_str     0x00000000000039d2      0x2c1 Drivers/STM32F7xx_HAL_Driver/stm32f7xx_hal.o
                                       0x1111 (size before relaxing)
 .debug_str     0x0000000000003c93      0x32c Drivers/STM32F7xx_HAL_Driver/stm32f7xx_hal_cortex.o
                                       0x12a7 (size before relaxing)
 .debug_str     0x0000000000003fbf      0x7f8 Drivers/STM32F7xx_HAL_Driver/stm32f7xx_hal_dfsdm.o
                                       0x174b (size before relaxing)
 .debug_str     0x00000000000047b7      0x2c6 Drivers/STM32F7xx_HAL_Driver/stm32f7xx_hal_dma.o
                                        0xc05 (size before relaxing)
 .debug_str     0x0000000000004a7d       0xea Drivers/STM32F7xx_HAL_Driver/stm32f7xx_hal_gpio.o
                                        0x99c (size before relaxing)
 .debug_str     0x0000000000004b67      0x77e Drivers/STM32F7xx_HAL_Driver/stm32f7xx_hal_i2c.o
                                       0x139c (size before relaxing)
 .debug_str     0x00000000000052e5       0x8f Drivers/STM32F7xx_HAL_Driver/stm32f7xx_hal_i2c_ex.o
                                        0xda0 (size before relaxing)
 .debug_str     0x0000000000005374      0x70a Drivers/STM32F7xx_HAL_Driver/stm32f7xx_hal_pcd.o
                                       0x1183 (size before relaxing)
 .debug_str     0x0000000000005a7e       0xa3 Drivers/STM32F7xx_HAL_Driver/stm32f7xx_hal_pcd_ex.o
                                        0xb3b (size before relaxing)
 .debug_str     0x0000000000005b21      0x1f0 Drivers/STM32F7xx_HAL_Driver/stm32f7xx_hal_pwr_ex.o
                                        0xaf7 (size before relaxing)
 .debug_str     0x0000000000005d11      0x135 Drivers/STM32F7xx_HAL_Driver/stm32f7xx_hal_rcc.o
                                        0xb6f (size before relaxing)
 .debug_str     0x0000000000005e46       0xd9 Drivers/STM32F7xx_HAL_Driver/stm32f7xx_hal_rcc_ex.o
                                        0xb64 (size before relaxing)
 .debug_str     0x0000000000005f1f      0x501 Drivers/STM32F7xx_HAL_Driver/stm32f7xx_hal_spi.o
                                       0x1075 (size before relaxing)
 .debug_str     0x0000000000006420      0xbb6 Drivers/STM32F7xx_HAL_Driver/stm32f7xx_hal_tim.o
                                       0x1866 (size before relaxing)
 .debug_str     0x0000000000006fd6      0x4c8 Drivers/STM32F7xx_HAL_Driver/stm32f7xx_hal_tim_ex.o
                                       0x13ac (size before relaxing)
 .debug_str     0x000000000000749e      0x4a1 Drivers/STM32F7xx_HAL_Driver/stm32f7xx_hal_uart.o
                                       0x12ae (size before relaxing)
 .debug_str     0x000000000000793f      0x3ca Drivers/STM32F7xx_HAL_Driver/stm32f7xx_ll_usb.o
                                       0x1077 (size before relaxing)
 .debug_str     0x0000000000007d09      0x928 Middlewares/FreeRTOS/cmsis_os.o
                                       0x121e (size before relaxing)
 .debug_str     0x0000000000008631      0x215 Middlewares/FreeRTOS/heap_4.o
                                        0x854 (size before relaxing)
 .debug_str     0x0000000000008846      0x14a Middlewares/FreeRTOS/list.o
                                        0x76b (size before relaxing)
 .debug_str     0x0000000000008990      0x216 Middlewares/FreeRTOS/port.o
                                        0x49e (size before relaxing)
 .debug_str     0x0000000000008ba6      0x462 Middlewares/FreeRTOS/queue.o
                                        0xd64 (size before relaxing)
 .debug_str     0x0000000000009008      0x6f9 Middlewares/FreeRTOS/tasks.o
                                       0x1266 (size before relaxing)

.comment        0x0000000000000000       0x7c
 .comment       0x0000000000000000       0x7c Application/User/Foc/controlFoc.o
                                         0x7d (size before relaxing)
 .comment       0x000000000000007c       0x7d Application/User/ISRs/isrSensors.o
 .comment       0x000000000000007c       0x7d Application/User/Idletasks/idletasks.o
 .comment       0x000000000000007c       0x7d Application/User/SYSINIT/sysinitial.o
 .comment       0x000000000000007c       0x7d Application/User/debug/datatraceDebug.o
 .comment       0x000000000000007c       0x7d Application/User/dfsdm.o
 .comment       0x000000000000007c       0x7d Application/User/dma.o
 .comment       0x000000000000007c       0x7d Application/User/freertos.o
 .comment       0x000000000000007c       0x7d Application/User/gpio.o
 .comment       0x000000000000007c       0x7d Application/User/i2c.o
 .comment       0x000000000000007c       0x7d Application/User/main.o
 .comment       0x000000000000007c       0x7d Application/User/spi.o
 .comment       0x000000000000007c       0x7d Application/User/stm32f7xx_hal_msp.o
 .comment       0x000000000000007c       0x7d Application/User/stm32f7xx_hal_timebase_TIM.o
 .comment       0x000000000000007c       0x7d Application/User/stm32f7xx_it.o
 .comment       0x000000000000007c       0x7d Application/User/tim.o
 .comment       0x000000000000007c       0x7d Application/User/usart.o
 .comment       0x000000000000007c       0x7d Application/User/usb_otg.o
 .comment       0x000000000000007c       0x7d Drivers/CMSIS/system_stm32f7xx.o
 .comment       0x000000000000007c       0x7d Drivers/STM32F7xx_HAL_Driver/stm32f7xx_hal.o
 .comment       0x000000000000007c       0x7d Drivers/STM32F7xx_HAL_Driver/stm32f7xx_hal_cortex.o
 .comment       0x000000000000007c       0x7d Drivers/STM32F7xx_HAL_Driver/stm32f7xx_hal_dfsdm.o
 .comment       0x000000000000007c       0x7d Drivers/STM32F7xx_HAL_Driver/stm32f7xx_hal_dma.o
 .comment       0x000000000000007c       0x7d Drivers/STM32F7xx_HAL_Driver/stm32f7xx_hal_gpio.o
 .comment       0x000000000000007c       0x7d Drivers/STM32F7xx_HAL_Driver/stm32f7xx_hal_i2c.o
 .comment       0x000000000000007c       0x7d Drivers/STM32F7xx_HAL_Driver/stm32f7xx_hal_i2c_ex.o
 .comment       0x000000000000007c       0x7d Drivers/STM32F7xx_HAL_Driver/stm32f7xx_hal_pcd.o
 .comment       0x000000000000007c       0x7d Drivers/STM32F7xx_HAL_Driver/stm32f7xx_hal_pcd_ex.o
 .comment       0x000000000000007c       0x7d Drivers/STM32F7xx_HAL_Driver/stm32f7xx_hal_pwr_ex.o
 .comment       0x000000000000007c       0x7d Drivers/STM32F7xx_HAL_Driver/stm32f7xx_hal_rcc.o
 .comment       0x000000000000007c       0x7d Drivers/STM32F7xx_HAL_Driver/stm32f7xx_hal_rcc_ex.o
 .comment       0x000000000000007c       0x7d Drivers/STM32F7xx_HAL_Driver/stm32f7xx_hal_spi.o
 .comment       0x000000000000007c       0x7d Drivers/STM32F7xx_HAL_Driver/stm32f7xx_hal_tim.o
 .comment       0x000000000000007c       0x7d Drivers/STM32F7xx_HAL_Driver/stm32f7xx_hal_tim_ex.o
 .comment       0x000000000000007c       0x7d Drivers/STM32F7xx_HAL_Driver/stm32f7xx_hal_uart.o
 .comment       0x000000000000007c       0x7d Drivers/STM32F7xx_HAL_Driver/stm32f7xx_ll_usb.o
 .comment       0x000000000000007c       0x7d Middlewares/FreeRTOS/cmsis_os.o
 .comment       0x000000000000007c       0x7d Middlewares/FreeRTOS/heap_4.o
 .comment       0x000000000000007c       0x7d Middlewares/FreeRTOS/list.o
 .comment       0x000000000000007c       0x7d Middlewares/FreeRTOS/port.o
 .comment       0x000000000000007c       0x7d Middlewares/FreeRTOS/queue.o
 .comment       0x000000000000007c       0x7d Middlewares/FreeRTOS/tasks.o

.debug_frame    0x0000000000000000     0x54b8
 .debug_frame   0x0000000000000000       0x8c Application/User/Foc/controlFoc.o
 .debug_frame   0x000000000000008c       0x60 Application/User/ISRs/isrSensors.o
 .debug_frame   0x00000000000000ec       0xac Application/User/Idletasks/idletasks.o
 .debug_frame   0x0000000000000198       0x2c Application/User/SYSINIT/sysinitial.o
 .debug_frame   0x00000000000001c4       0x44 Application/User/debug/datatraceDebug.o
 .debug_frame   0x0000000000000208       0xc4 Application/User/dfsdm.o
 .debug_frame   0x00000000000002cc       0x30 Application/User/dma.o
 .debug_frame   0x00000000000002fc       0xe0 Application/User/freertos.o
 .debug_frame   0x00000000000003dc       0x38 Application/User/gpio.o
 .debug_frame   0x0000000000000414       0x6c Application/User/i2c.o
 .debug_frame   0x0000000000000480       0x70 Application/User/main.o
 .debug_frame   0x00000000000004f0       0x78 Application/User/spi.o
 .debug_frame   0x0000000000000568       0x2c Application/User/stm32f7xx_hal_msp.o
 .debug_frame   0x0000000000000594       0x58 Application/User/stm32f7xx_hal_timebase_TIM.o
 .debug_frame   0x00000000000005ec       0xd0 Application/User/stm32f7xx_it.o
 .debug_frame   0x00000000000006bc       0xb4 Application/User/tim.o
 .debug_frame   0x0000000000000770      0x10c Application/User/usart.o
 .debug_frame   0x000000000000087c       0x74 Application/User/usb_otg.o
 .debug_frame   0x00000000000008f0       0x40 Drivers/CMSIS/system_stm32f7xx.o
 .debug_frame   0x0000000000000930      0x1f8 Drivers/STM32F7xx_HAL_Driver/stm32f7xx_hal.o
 .debug_frame   0x0000000000000b28      0x198 Drivers/STM32F7xx_HAL_Driver/stm32f7xx_hal_cortex.o
 .debug_frame   0x0000000000000cc0      0x694 Drivers/STM32F7xx_HAL_Driver/stm32f7xx_hal_dfsdm.o
 .debug_frame   0x0000000000001354      0x18c Drivers/STM32F7xx_HAL_Driver/stm32f7xx_hal_dma.o
 .debug_frame   0x00000000000014e0       0xd8 Drivers/STM32F7xx_HAL_Driver/stm32f7xx_hal_gpio.o
 .debug_frame   0x00000000000015b8      0x7a4 Drivers/STM32F7xx_HAL_Driver/stm32f7xx_hal_i2c.o
 .debug_frame   0x0000000000001d5c       0x80 Drivers/STM32F7xx_HAL_Driver/stm32f7xx_hal_i2c_ex.o
 .debug_frame   0x0000000000001ddc      0x300 Drivers/STM32F7xx_HAL_Driver/stm32f7xx_hal_pcd.o
 .debug_frame   0x00000000000020dc       0x90 Drivers/STM32F7xx_HAL_Driver/stm32f7xx_hal_pcd_ex.o
 .debug_frame   0x000000000000216c      0x15c Drivers/STM32F7xx_HAL_Driver/stm32f7xx_hal_pwr_ex.o
 .debug_frame   0x00000000000022c8      0x174 Drivers/STM32F7xx_HAL_Driver/stm32f7xx_hal_rcc.o
 .debug_frame   0x000000000000243c       0x64 Drivers/STM32F7xx_HAL_Driver/stm32f7xx_hal_rcc_ex.o
 .debug_frame   0x00000000000024a0      0x644 Drivers/STM32F7xx_HAL_Driver/stm32f7xx_hal_spi.o
 .debug_frame   0x0000000000002ae4      0xa8c Drivers/STM32F7xx_HAL_Driver/stm32f7xx_hal_tim.o
 .debug_frame   0x0000000000003570      0x4c8 Drivers/STM32F7xx_HAL_Driver/stm32f7xx_hal_tim_ex.o
 .debug_frame   0x0000000000003a38      0x4c4 Drivers/STM32F7xx_HAL_Driver/stm32f7xx_hal_uart.o
 .debug_frame   0x0000000000003efc      0x448 Drivers/STM32F7xx_HAL_Driver/stm32f7xx_ll_usb.o
 .debug_frame   0x0000000000004344      0x564 Middlewares/FreeRTOS/cmsis_os.o
 .debug_frame   0x00000000000048a8       0x98 Middlewares/FreeRTOS/heap_4.o
 .debug_frame   0x0000000000004940       0x88 Middlewares/FreeRTOS/list.o
 .debug_frame   0x00000000000049c8      0x104 Middlewares/FreeRTOS/port.o
 .debug_frame   0x0000000000004acc      0x29c Middlewares/FreeRTOS/queue.o
 .debug_frame   0x0000000000004d68      0x4f8 Middlewares/FreeRTOS/tasks.o
 .debug_frame   0x0000000000005260       0x2c /home/chen/IDEs/TrueStudio/ARMTools/bin/../lib/gcc/arm-atollic-eabi/6.3.1/../../../../arm-atollic-eabi/lib/armv7e-m/fpu/fpv5-d16/libm.a(lib_a-s_cos.o)
 .debug_frame   0x000000000000528c       0x2c /home/chen/IDEs/TrueStudio/ARMTools/bin/../lib/gcc/arm-atollic-eabi/6.3.1/../../../../arm-atollic-eabi/lib/armv7e-m/fpu/fpv5-d16/libm.a(lib_a-s_sin.o)
 .debug_frame   0x00000000000052b8       0x38 /home/chen/IDEs/TrueStudio/ARMTools/bin/../lib/gcc/arm-atollic-eabi/6.3.1/../../../../arm-atollic-eabi/lib/armv7e-m/fpu/fpv5-d16/libm.a(lib_a-e_rem_pio2.o)
 .debug_frame   0x00000000000052f0       0x20 /home/chen/IDEs/TrueStudio/ARMTools/bin/../lib/gcc/arm-atollic-eabi/6.3.1/../../../../arm-atollic-eabi/lib/armv7e-m/fpu/fpv5-d16/libm.a(lib_a-k_cos.o)
 .debug_frame   0x0000000000005310       0x68 /home/chen/IDEs/TrueStudio/ARMTools/bin/../lib/gcc/arm-atollic-eabi/6.3.1/../../../../arm-atollic-eabi/lib/armv7e-m/fpu/fpv5-d16/libm.a(lib_a-k_rem_pio2.o)
 .debug_frame   0x0000000000005378       0x20 /home/chen/IDEs/TrueStudio/ARMTools/bin/../lib/gcc/arm-atollic-eabi/6.3.1/../../../../arm-atollic-eabi/lib/armv7e-m/fpu/fpv5-d16/libm.a(lib_a-k_sin.o)
 .debug_frame   0x0000000000005398       0x20 /home/chen/IDEs/TrueStudio/ARMTools/bin/../lib/gcc/arm-atollic-eabi/6.3.1/../../../../arm-atollic-eabi/lib/armv7e-m/fpu/fpv5-d16/libm.a(lib_a-s_fabs.o)
 .debug_frame   0x00000000000053b8       0x2c /home/chen/IDEs/TrueStudio/ARMTools/bin/../lib/gcc/arm-atollic-eabi/6.3.1/../../../../arm-atollic-eabi/lib/armv7e-m/fpu/fpv5-d16/libm.a(lib_a-s_floor.o)
 .debug_frame   0x00000000000053e4       0x40 /home/chen/IDEs/TrueStudio/ARMTools/bin/../lib/gcc/arm-atollic-eabi/6.3.1/../../../../arm-atollic-eabi/lib/armv7e-m/fpu/fpv5-d16/libm.a(lib_a-s_scalbn.o)
 .debug_frame   0x0000000000005424       0x20 /home/chen/IDEs/TrueStudio/ARMTools/bin/../lib/gcc/arm-atollic-eabi/6.3.1/../../../../arm-atollic-eabi/lib/armv7e-m/fpu/fpv5-d16/libm.a(lib_a-s_copysign.o)
 .debug_frame   0x0000000000005444       0x2c /home/chen/IDEs/TrueStudio/ARMTools/bin/../lib/gcc/arm-atollic-eabi/6.3.1/../../../../arm-atollic-eabi/lib/armv7e-m/fpu/fpv5-d16/libc_nano.a(lib_a-init.o)
 .debug_frame   0x0000000000005470       0x28 /home/chen/IDEs/TrueStudio/ARMTools/bin/../lib/gcc/arm-atollic-eabi/6.3.1/../../../../arm-atollic-eabi/lib/armv7e-m/fpu/fpv5-d16/libc_nano.a(lib_a-memcpy-stub.o)
 .debug_frame   0x0000000000005498       0x20 /home/chen/IDEs/TrueStudio/ARMTools/bin/../lib/gcc/arm-atollic-eabi/6.3.1/../../../../arm-atollic-eabi/lib/armv7e-m/fpu/fpv5-d16/libc_nano.a(lib_a-memset.o)

Cross Reference Table

Symbol                                            File
ADC_IRQHandler                                    Application/TrueSTUDIO/startup_stm32f765xx.o
AHBPrescTable                                     Drivers/CMSIS/system_stm32f7xx.o
                                                  Drivers/STM32F7xx_HAL_Driver/stm32f7xx_hal_rcc.o
APBPrescTable                                     Drivers/CMSIS/system_stm32f7xx.o
                                                  Drivers/STM32F7xx_HAL_Driver/stm32f7xx_hal_rcc.o
BusFault_Handler                                  Application/User/stm32f7xx_it.o
                                                  Application/TrueSTUDIO/startup_stm32f765xx.o
CAN1_RX0_IRQHandler                               Application/TrueSTUDIO/startup_stm32f765xx.o
CAN1_RX1_IRQHandler                               Application/TrueSTUDIO/startup_stm32f765xx.o
CAN1_SCE_IRQHandler                               Application/TrueSTUDIO/startup_stm32f765xx.o
CAN1_TX_IRQHandler                                Application/TrueSTUDIO/startup_stm32f765xx.o
CAN2_RX0_IRQHandler                               Application/TrueSTUDIO/startup_stm32f765xx.o
CAN2_RX1_IRQHandler                               Application/TrueSTUDIO/startup_stm32f765xx.o
CAN2_SCE_IRQHandler                               Application/TrueSTUDIO/startup_stm32f765xx.o
CAN2_TX_IRQHandler                                Application/TrueSTUDIO/startup_stm32f765xx.o
CAN3_RX0_IRQHandler                               Application/TrueSTUDIO/startup_stm32f765xx.o
CAN3_RX1_IRQHandler                               Application/TrueSTUDIO/startup_stm32f765xx.o
CAN3_SCE_IRQHandler                               Application/TrueSTUDIO/startup_stm32f765xx.o
CAN3_TX_IRQHandler                                Application/TrueSTUDIO/startup_stm32f765xx.o
CEC_IRQHandler                                    Application/TrueSTUDIO/startup_stm32f765xx.o
DCMI_IRQHandler                                   Application/TrueSTUDIO/startup_stm32f765xx.o
DFSDM1_FLT0_IRQHandler                            Application/TrueSTUDIO/startup_stm32f765xx.o
DFSDM1_FLT1_IRQHandler                            Application/TrueSTUDIO/startup_stm32f765xx.o
DFSDM1_FLT2_IRQHandler                            Application/TrueSTUDIO/startup_stm32f765xx.o
DFSDM1_FLT3_IRQHandler                            Application/TrueSTUDIO/startup_stm32f765xx.o
DMA1_Stream0_IRQHandler                           Application/TrueSTUDIO/startup_stm32f765xx.o
DMA1_Stream1_IRQHandler                           Application/TrueSTUDIO/startup_stm32f765xx.o
DMA1_Stream2_IRQHandler                           Application/User/stm32f7xx_it.o
                                                  Application/TrueSTUDIO/startup_stm32f765xx.o
DMA1_Stream3_IRQHandler                           Application/TrueSTUDIO/startup_stm32f765xx.o
DMA1_Stream4_IRQHandler                           Application/TrueSTUDIO/startup_stm32f765xx.o
DMA1_Stream5_IRQHandler                           Application/TrueSTUDIO/startup_stm32f765xx.o
DMA1_Stream6_IRQHandler                           Application/TrueSTUDIO/startup_stm32f765xx.o
DMA1_Stream7_IRQHandler                           Application/TrueSTUDIO/startup_stm32f765xx.o
DMA2D_IRQHandler                                  Application/TrueSTUDIO/startup_stm32f765xx.o
DMA2_Stream0_IRQHandler                           Application/User/stm32f7xx_it.o
                                                  Application/TrueSTUDIO/startup_stm32f765xx.o
DMA2_Stream1_IRQHandler                           Application/User/stm32f7xx_it.o
                                                  Application/TrueSTUDIO/startup_stm32f765xx.o
DMA2_Stream2_IRQHandler                           Application/User/stm32f7xx_it.o
                                                  Application/TrueSTUDIO/startup_stm32f765xx.o
DMA2_Stream3_IRQHandler                           Application/TrueSTUDIO/startup_stm32f765xx.o
DMA2_Stream4_IRQHandler                           Application/TrueSTUDIO/startup_stm32f765xx.o
DMA2_Stream5_IRQHandler                           Application/TrueSTUDIO/startup_stm32f765xx.o
DMA2_Stream6_IRQHandler                           Application/TrueSTUDIO/startup_stm32f765xx.o
DMA2_Stream7_IRQHandler                           Application/TrueSTUDIO/startup_stm32f765xx.o
DebugMon_Handler                                  Application/User/stm32f7xx_it.o
                                                  Application/TrueSTUDIO/startup_stm32f765xx.o
Default_Handler                                   Application/TrueSTUDIO/startup_stm32f765xx.o
ETH_IRQHandler                                    Application/TrueSTUDIO/startup_stm32f765xx.o
ETH_WKUP_IRQHandler                               Application/TrueSTUDIO/startup_stm32f765xx.o
EXTI0_IRQHandler                                  Application/TrueSTUDIO/startup_stm32f765xx.o
EXTI15_10_IRQHandler                              Application/TrueSTUDIO/startup_stm32f765xx.o
EXTI1_IRQHandler                                  Application/TrueSTUDIO/startup_stm32f765xx.o
EXTI2_IRQHandler                                  Application/TrueSTUDIO/startup_stm32f765xx.o
EXTI3_IRQHandler                                  Application/TrueSTUDIO/startup_stm32f765xx.o
EXTI4_IRQHandler                                  Application/TrueSTUDIO/startup_stm32f765xx.o
EXTI9_5_IRQHandler                                Application/TrueSTUDIO/startup_stm32f765xx.o
FLASH_Erase_Sector                                Drivers/STM32F7xx_HAL_Driver/stm32f7xx_hal_flash_ex.o
                                                  Drivers/STM32F7xx_HAL_Driver/stm32f7xx_hal_flash.o
FLASH_IRQHandler                                  Application/TrueSTUDIO/startup_stm32f765xx.o
FLASH_WaitForLastOperation                        Drivers/STM32F7xx_HAL_Driver/stm32f7xx_hal_flash.o
                                                  Drivers/STM32F7xx_HAL_Driver/stm32f7xx_hal_flash_ex.o
FMC_IRQHandler                                    Application/TrueSTUDIO/startup_stm32f765xx.o
FPU_IRQHandler                                    Application/TrueSTUDIO/startup_stm32f765xx.o
HAL_DBGMCU_DisableDBGSleepMode                    Drivers/STM32F7xx_HAL_Driver/stm32f7xx_hal.o
HAL_DBGMCU_DisableDBGStandbyMode                  Drivers/STM32F7xx_HAL_Driver/stm32f7xx_hal.o
HAL_DBGMCU_DisableDBGStopMode                     Drivers/STM32F7xx_HAL_Driver/stm32f7xx_hal.o
HAL_DBGMCU_EnableDBGSleepMode                     Drivers/STM32F7xx_HAL_Driver/stm32f7xx_hal.o
HAL_DBGMCU_EnableDBGStandbyMode                   Drivers/STM32F7xx_HAL_Driver/stm32f7xx_hal.o
HAL_DBGMCU_EnableDBGStopMode                      Drivers/STM32F7xx_HAL_Driver/stm32f7xx_hal.o
HAL_DFSDM_ChannelCkabCallback                     Drivers/STM32F7xx_HAL_Driver/stm32f7xx_hal_dfsdm.o
HAL_DFSDM_ChannelCkabStart                        Drivers/STM32F7xx_HAL_Driver/stm32f7xx_hal_dfsdm.o
HAL_DFSDM_ChannelCkabStart_IT                     Drivers/STM32F7xx_HAL_Driver/stm32f7xx_hal_dfsdm.o
HAL_DFSDM_ChannelCkabStop                         Drivers/STM32F7xx_HAL_Driver/stm32f7xx_hal_dfsdm.o
HAL_DFSDM_ChannelCkabStop_IT                      Drivers/STM32F7xx_HAL_Driver/stm32f7xx_hal_dfsdm.o
HAL_DFSDM_ChannelDeInit                           Drivers/STM32F7xx_HAL_Driver/stm32f7xx_hal_dfsdm.o
HAL_DFSDM_ChannelGetAwdValue                      Drivers/STM32F7xx_HAL_Driver/stm32f7xx_hal_dfsdm.o
HAL_DFSDM_ChannelGetState                         Drivers/STM32F7xx_HAL_Driver/stm32f7xx_hal_dfsdm.o
HAL_DFSDM_ChannelInit                             Drivers/STM32F7xx_HAL_Driver/stm32f7xx_hal_dfsdm.o
                                                  Application/User/dfsdm.o
HAL_DFSDM_ChannelModifyOffset                     Drivers/STM32F7xx_HAL_Driver/stm32f7xx_hal_dfsdm.o
HAL_DFSDM_ChannelMspDeInit                        Application/User/dfsdm.o
HAL_DFSDM_ChannelMspInit                          Application/User/dfsdm.o
HAL_DFSDM_ChannelPollForCkab                      Drivers/STM32F7xx_HAL_Driver/stm32f7xx_hal_dfsdm.o
HAL_DFSDM_ChannelPollForScd                       Drivers/STM32F7xx_HAL_Driver/stm32f7xx_hal_dfsdm.o
HAL_DFSDM_ChannelScdCallback                      Drivers/STM32F7xx_HAL_Driver/stm32f7xx_hal_dfsdm.o
HAL_DFSDM_ChannelScdStart                         Drivers/STM32F7xx_HAL_Driver/stm32f7xx_hal_dfsdm.o
HAL_DFSDM_ChannelScdStart_IT                      Drivers/STM32F7xx_HAL_Driver/stm32f7xx_hal_dfsdm.o
HAL_DFSDM_ChannelScdStop                          Drivers/STM32F7xx_HAL_Driver/stm32f7xx_hal_dfsdm.o
HAL_DFSDM_ChannelScdStop_IT                       Drivers/STM32F7xx_HAL_Driver/stm32f7xx_hal_dfsdm.o
HAL_DFSDM_FilterAwdCallback                       Drivers/STM32F7xx_HAL_Driver/stm32f7xx_hal_dfsdm.o
HAL_DFSDM_FilterAwdStart_IT                       Drivers/STM32F7xx_HAL_Driver/stm32f7xx_hal_dfsdm.o
HAL_DFSDM_FilterAwdStop_IT                        Drivers/STM32F7xx_HAL_Driver/stm32f7xx_hal_dfsdm.o
HAL_DFSDM_FilterConfigInjChannel                  Drivers/STM32F7xx_HAL_Driver/stm32f7xx_hal_dfsdm.o
HAL_DFSDM_FilterConfigRegChannel                  Drivers/STM32F7xx_HAL_Driver/stm32f7xx_hal_dfsdm.o
                                                  Application/User/dfsdm.o
HAL_DFSDM_FilterDeInit                            Drivers/STM32F7xx_HAL_Driver/stm32f7xx_hal_dfsdm.o
HAL_DFSDM_FilterErrorCallback                     Drivers/STM32F7xx_HAL_Driver/stm32f7xx_hal_dfsdm.o
HAL_DFSDM_FilterExdStart                          Drivers/STM32F7xx_HAL_Driver/stm32f7xx_hal_dfsdm.o
HAL_DFSDM_FilterExdStop                           Drivers/STM32F7xx_HAL_Driver/stm32f7xx_hal_dfsdm.o
HAL_DFSDM_FilterGetConvTimeValue                  Drivers/STM32F7xx_HAL_Driver/stm32f7xx_hal_dfsdm.o
HAL_DFSDM_FilterGetError                          Drivers/STM32F7xx_HAL_Driver/stm32f7xx_hal_dfsdm.o
HAL_DFSDM_FilterGetExdMaxValue                    Drivers/STM32F7xx_HAL_Driver/stm32f7xx_hal_dfsdm.o
HAL_DFSDM_FilterGetExdMinValue                    Drivers/STM32F7xx_HAL_Driver/stm32f7xx_hal_dfsdm.o
HAL_DFSDM_FilterGetInjectedValue                  Drivers/STM32F7xx_HAL_Driver/stm32f7xx_hal_dfsdm.o
HAL_DFSDM_FilterGetRegularValue                   Drivers/STM32F7xx_HAL_Driver/stm32f7xx_hal_dfsdm.o
                                                  Application/User/ISRs/isrSensors.o
HAL_DFSDM_FilterGetState                          Drivers/STM32F7xx_HAL_Driver/stm32f7xx_hal_dfsdm.o
HAL_DFSDM_FilterInit                              Drivers/STM32F7xx_HAL_Driver/stm32f7xx_hal_dfsdm.o
                                                  Application/User/dfsdm.o
HAL_DFSDM_FilterInjConvCpltCallback               Drivers/STM32F7xx_HAL_Driver/stm32f7xx_hal_dfsdm.o
HAL_DFSDM_FilterInjConvHalfCpltCallback           Drivers/STM32F7xx_HAL_Driver/stm32f7xx_hal_dfsdm.o
HAL_DFSDM_FilterInjectedMsbStart_DMA              Drivers/STM32F7xx_HAL_Driver/stm32f7xx_hal_dfsdm.o
HAL_DFSDM_FilterInjectedStart                     Drivers/STM32F7xx_HAL_Driver/stm32f7xx_hal_dfsdm.o
HAL_DFSDM_FilterInjectedStart_DMA                 Drivers/STM32F7xx_HAL_Driver/stm32f7xx_hal_dfsdm.o
HAL_DFSDM_FilterInjectedStart_IT                  Drivers/STM32F7xx_HAL_Driver/stm32f7xx_hal_dfsdm.o
HAL_DFSDM_FilterInjectedStop                      Drivers/STM32F7xx_HAL_Driver/stm32f7xx_hal_dfsdm.o
HAL_DFSDM_FilterInjectedStop_DMA                  Drivers/STM32F7xx_HAL_Driver/stm32f7xx_hal_dfsdm.o
HAL_DFSDM_FilterInjectedStop_IT                   Drivers/STM32F7xx_HAL_Driver/stm32f7xx_hal_dfsdm.o
HAL_DFSDM_FilterMspDeInit                         Application/User/dfsdm.o
HAL_DFSDM_FilterMspInit                           Application/User/dfsdm.o
HAL_DFSDM_FilterPollForInjConversion              Drivers/STM32F7xx_HAL_Driver/stm32f7xx_hal_dfsdm.o
HAL_DFSDM_FilterPollForRegConversion              Drivers/STM32F7xx_HAL_Driver/stm32f7xx_hal_dfsdm.o
                                                  Application/User/ISRs/isrSensors.o
HAL_DFSDM_FilterRegConvCpltCallback               Drivers/STM32F7xx_HAL_Driver/stm32f7xx_hal_dfsdm.o
HAL_DFSDM_FilterRegConvHalfCpltCallback           Drivers/STM32F7xx_HAL_Driver/stm32f7xx_hal_dfsdm.o
HAL_DFSDM_FilterRegularMsbStart_DMA               Drivers/STM32F7xx_HAL_Driver/stm32f7xx_hal_dfsdm.o
HAL_DFSDM_FilterRegularStart                      Drivers/STM32F7xx_HAL_Driver/stm32f7xx_hal_dfsdm.o
                                                  Application/User/SYSINIT/sysinitial.o
HAL_DFSDM_FilterRegularStart_DMA                  Drivers/STM32F7xx_HAL_Driver/stm32f7xx_hal_dfsdm.o
HAL_DFSDM_FilterRegularStart_IT                   Drivers/STM32F7xx_HAL_Driver/stm32f7xx_hal_dfsdm.o
HAL_DFSDM_FilterRegularStop                       Drivers/STM32F7xx_HAL_Driver/stm32f7xx_hal_dfsdm.o
HAL_DFSDM_FilterRegularStop_DMA                   Drivers/STM32F7xx_HAL_Driver/stm32f7xx_hal_dfsdm.o
HAL_DFSDM_FilterRegularStop_IT                    Drivers/STM32F7xx_HAL_Driver/stm32f7xx_hal_dfsdm.o
HAL_DFSDM_IRQHandler                              Drivers/STM32F7xx_HAL_Driver/stm32f7xx_hal_dfsdm.o
HAL_DMAEx_ChangeMemory                            Drivers/STM32F7xx_HAL_Driver/stm32f7xx_hal_dma_ex.o
HAL_DMAEx_MultiBufferStart                        Drivers/STM32F7xx_HAL_Driver/stm32f7xx_hal_dma_ex.o
HAL_DMAEx_MultiBufferStart_IT                     Drivers/STM32F7xx_HAL_Driver/stm32f7xx_hal_dma_ex.o
HAL_DMA_Abort                                     Drivers/STM32F7xx_HAL_Driver/stm32f7xx_hal_dma.o
                                                  Drivers/STM32F7xx_HAL_Driver/stm32f7xx_hal_uart.o
                                                  Drivers/STM32F7xx_HAL_Driver/stm32f7xx_hal_tim.o
                                                  Drivers/STM32F7xx_HAL_Driver/stm32f7xx_hal_spi.o
                                                  Drivers/STM32F7xx_HAL_Driver/stm32f7xx_hal_dfsdm.o
HAL_DMA_Abort_IT                                  Drivers/STM32F7xx_HAL_Driver/stm32f7xx_hal_dma.o
                                                  Drivers/STM32F7xx_HAL_Driver/stm32f7xx_hal_uart.o
                                                  Drivers/STM32F7xx_HAL_Driver/stm32f7xx_hal_spi.o
                                                  Drivers/STM32F7xx_HAL_Driver/stm32f7xx_hal_i2c.o
HAL_DMA_DeInit                                    Drivers/STM32F7xx_HAL_Driver/stm32f7xx_hal_dma.o
                                                  Application/User/usart.o
                                                  Application/User/dfsdm.o
HAL_DMA_GetError                                  Drivers/STM32F7xx_HAL_Driver/stm32f7xx_hal_dma.o
HAL_DMA_GetState                                  Drivers/STM32F7xx_HAL_Driver/stm32f7xx_hal_dma.o
HAL_DMA_IRQHandler                                Drivers/STM32F7xx_HAL_Driver/stm32f7xx_hal_dma.o
                                                  Application/User/stm32f7xx_it.o
HAL_DMA_Init                                      Drivers/STM32F7xx_HAL_Driver/stm32f7xx_hal_dma.o
                                                  Application/User/usart.o
                                                  Application/User/dfsdm.o
HAL_DMA_PollForTransfer                           Drivers/STM32F7xx_HAL_Driver/stm32f7xx_hal_dma.o
HAL_DMA_RegisterCallback                          Drivers/STM32F7xx_HAL_Driver/stm32f7xx_hal_dma.o
HAL_DMA_Start                                     Drivers/STM32F7xx_HAL_Driver/stm32f7xx_hal_dma.o
HAL_DMA_Start_IT                                  Drivers/STM32F7xx_HAL_Driver/stm32f7xx_hal_dma.o
                                                  Drivers/STM32F7xx_HAL_Driver/stm32f7xx_hal_uart.o
                                                  Drivers/STM32F7xx_HAL_Driver/stm32f7xx_hal_tim_ex.o
                                                  Drivers/STM32F7xx_HAL_Driver/stm32f7xx_hal_tim.o
                                                  Drivers/STM32F7xx_HAL_Driver/stm32f7xx_hal_spi.o
                                                  Drivers/STM32F7xx_HAL_Driver/stm32f7xx_hal_i2c.o
                                                  Drivers/STM32F7xx_HAL_Driver/stm32f7xx_hal_dfsdm.o
HAL_DMA_UnRegisterCallback                        Drivers/STM32F7xx_HAL_Driver/stm32f7xx_hal_dma.o
HAL_DeInit                                        Drivers/STM32F7xx_HAL_Driver/stm32f7xx_hal.o
HAL_Delay                                         Drivers/STM32F7xx_HAL_Driver/stm32f7xx_hal.o
                                                  Drivers/STM32F7xx_HAL_Driver/stm32f7xx_ll_usb.o
HAL_DisableCompensationCell                       Drivers/STM32F7xx_HAL_Driver/stm32f7xx_hal.o
HAL_DisableFMCMemorySwapping                      Drivers/STM32F7xx_HAL_Driver/stm32f7xx_hal.o
HAL_DisableMemorySwappingBank                     Drivers/STM32F7xx_HAL_Driver/stm32f7xx_hal.o
HAL_EnableCompensationCell                        Drivers/STM32F7xx_HAL_Driver/stm32f7xx_hal.o
HAL_EnableFMCMemorySwapping                       Drivers/STM32F7xx_HAL_Driver/stm32f7xx_hal.o
HAL_EnableMemorySwappingBank                      Drivers/STM32F7xx_HAL_Driver/stm32f7xx_hal.o
HAL_FLASHEx_Erase                                 Drivers/STM32F7xx_HAL_Driver/stm32f7xx_hal_flash_ex.o
HAL_FLASHEx_Erase_IT                              Drivers/STM32F7xx_HAL_Driver/stm32f7xx_hal_flash_ex.o
HAL_FLASHEx_OBGetConfig                           Drivers/STM32F7xx_HAL_Driver/stm32f7xx_hal_flash_ex.o
HAL_FLASHEx_OBProgram                             Drivers/STM32F7xx_HAL_Driver/stm32f7xx_hal_flash_ex.o
HAL_FLASH_EndOfOperationCallback                  Drivers/STM32F7xx_HAL_Driver/stm32f7xx_hal_flash.o
HAL_FLASH_GetError                                Drivers/STM32F7xx_HAL_Driver/stm32f7xx_hal_flash.o
HAL_FLASH_IRQHandler                              Drivers/STM32F7xx_HAL_Driver/stm32f7xx_hal_flash.o
HAL_FLASH_Lock                                    Drivers/STM32F7xx_HAL_Driver/stm32f7xx_hal_flash.o
HAL_FLASH_OB_Launch                               Drivers/STM32F7xx_HAL_Driver/stm32f7xx_hal_flash.o
HAL_FLASH_OB_Lock                                 Drivers/STM32F7xx_HAL_Driver/stm32f7xx_hal_flash.o
HAL_FLASH_OB_Unlock                               Drivers/STM32F7xx_HAL_Driver/stm32f7xx_hal_flash.o
HAL_FLASH_OperationErrorCallback                  Drivers/STM32F7xx_HAL_Driver/stm32f7xx_hal_flash.o
HAL_FLASH_Program                                 Drivers/STM32F7xx_HAL_Driver/stm32f7xx_hal_flash.o
HAL_FLASH_Program_IT                              Drivers/STM32F7xx_HAL_Driver/stm32f7xx_hal_flash.o
HAL_FLASH_Unlock                                  Drivers/STM32F7xx_HAL_Driver/stm32f7xx_hal_flash.o
HAL_GPIO_DeInit                                   Drivers/STM32F7xx_HAL_Driver/stm32f7xx_hal_gpio.o
                                                  Application/User/usb_otg.o
                                                  Application/User/usart.o
                                                  Application/User/spi.o
                                                  Application/User/i2c.o
                                                  Application/User/dfsdm.o
HAL_GPIO_EXTI_Callback                            Drivers/STM32F7xx_HAL_Driver/stm32f7xx_hal_gpio.o
HAL_GPIO_EXTI_IRQHandler                          Drivers/STM32F7xx_HAL_Driver/stm32f7xx_hal_gpio.o
HAL_GPIO_Init                                     Drivers/STM32F7xx_HAL_Driver/stm32f7xx_hal_gpio.o
                                                  Drivers/STM32F7xx_HAL_Driver/stm32f7xx_hal_rcc.o
                                                  Application/User/usb_otg.o
                                                  Application/User/usart.o
                                                  Application/User/tim.o
                                                  Application/User/spi.o
                                                  Application/User/i2c.o
                                                  Application/User/gpio.o
                                                  Application/User/dfsdm.o
HAL_GPIO_LockPin                                  Drivers/STM32F7xx_HAL_Driver/stm32f7xx_hal_gpio.o
HAL_GPIO_ReadPin                                  Drivers/STM32F7xx_HAL_Driver/stm32f7xx_hal_gpio.o
HAL_GPIO_TogglePin                                Drivers/STM32F7xx_HAL_Driver/stm32f7xx_hal_gpio.o
                                                  Application/User/Idletasks/idletasks.o
                                                  Application/User/Foc/controlFoc.o
HAL_GPIO_WritePin                                 Drivers/STM32F7xx_HAL_Driver/stm32f7xx_hal_gpio.o
                                                  Application/User/gpio.o
HAL_GetDEVID                                      Drivers/STM32F7xx_HAL_Driver/stm32f7xx_hal.o
HAL_GetHalVersion                                 Drivers/STM32F7xx_HAL_Driver/stm32f7xx_hal.o
HAL_GetREVID                                      Drivers/STM32F7xx_HAL_Driver/stm32f7xx_hal.o
HAL_GetTick                                       Drivers/STM32F7xx_HAL_Driver/stm32f7xx_hal.o
                                                  Drivers/STM32F7xx_HAL_Driver/stm32f7xx_hal_uart.o
                                                  Drivers/STM32F7xx_HAL_Driver/stm32f7xx_hal_spi.o
                                                  Drivers/STM32F7xx_HAL_Driver/stm32f7xx_hal_rcc_ex.o
                                                  Drivers/STM32F7xx_HAL_Driver/stm32f7xx_hal_rcc.o
                                                  Drivers/STM32F7xx_HAL_Driver/stm32f7xx_hal_pwr_ex.o
                                                  Drivers/STM32F7xx_HAL_Driver/stm32f7xx_hal_i2c.o
                                                  Drivers/STM32F7xx_HAL_Driver/stm32f7xx_hal_flash.o
                                                  Drivers/STM32F7xx_HAL_Driver/stm32f7xx_hal_dma.o
                                                  Drivers/STM32F7xx_HAL_Driver/stm32f7xx_hal_dfsdm.o
HAL_GetUIDw0                                      Drivers/STM32F7xx_HAL_Driver/stm32f7xx_hal.o
HAL_GetUIDw1                                      Drivers/STM32F7xx_HAL_Driver/stm32f7xx_hal.o
HAL_GetUIDw2                                      Drivers/STM32F7xx_HAL_Driver/stm32f7xx_hal.o
HAL_HalfDuplex_EnableReceiver                     Drivers/STM32F7xx_HAL_Driver/stm32f7xx_hal_uart.o
HAL_HalfDuplex_EnableTransmitter                  Drivers/STM32F7xx_HAL_Driver/stm32f7xx_hal_uart.o
HAL_HalfDuplex_Init                               Drivers/STM32F7xx_HAL_Driver/stm32f7xx_hal_uart.o
HAL_I2CEx_ConfigAnalogFilter                      Drivers/STM32F7xx_HAL_Driver/stm32f7xx_hal_i2c_ex.o
                                                  Application/User/i2c.o
HAL_I2CEx_ConfigDigitalFilter                     Drivers/STM32F7xx_HAL_Driver/stm32f7xx_hal_i2c_ex.o
                                                  Application/User/i2c.o
HAL_I2CEx_DisableFastModePlus                     Drivers/STM32F7xx_HAL_Driver/stm32f7xx_hal_i2c_ex.o
HAL_I2CEx_EnableFastModePlus                      Drivers/STM32F7xx_HAL_Driver/stm32f7xx_hal_i2c_ex.o
HAL_I2C_AbortCpltCallback                         Drivers/STM32F7xx_HAL_Driver/stm32f7xx_hal_i2c.o
HAL_I2C_AddrCallback                              Drivers/STM32F7xx_HAL_Driver/stm32f7xx_hal_i2c.o
HAL_I2C_DeInit                                    Drivers/STM32F7xx_HAL_Driver/stm32f7xx_hal_i2c.o
HAL_I2C_DisableListen_IT                          Drivers/STM32F7xx_HAL_Driver/stm32f7xx_hal_i2c.o
HAL_I2C_ER_IRQHandler                             Drivers/STM32F7xx_HAL_Driver/stm32f7xx_hal_i2c.o
HAL_I2C_EV_IRQHandler                             Drivers/STM32F7xx_HAL_Driver/stm32f7xx_hal_i2c.o
HAL_I2C_EnableListen_IT                           Drivers/STM32F7xx_HAL_Driver/stm32f7xx_hal_i2c.o
HAL_I2C_ErrorCallback                             Drivers/STM32F7xx_HAL_Driver/stm32f7xx_hal_i2c.o
HAL_I2C_GetError                                  Drivers/STM32F7xx_HAL_Driver/stm32f7xx_hal_i2c.o
HAL_I2C_GetMode                                   Drivers/STM32F7xx_HAL_Driver/stm32f7xx_hal_i2c.o
HAL_I2C_GetState                                  Drivers/STM32F7xx_HAL_Driver/stm32f7xx_hal_i2c.o
HAL_I2C_Init                                      Drivers/STM32F7xx_HAL_Driver/stm32f7xx_hal_i2c.o
                                                  Application/User/i2c.o
HAL_I2C_IsDeviceReady                             Drivers/STM32F7xx_HAL_Driver/stm32f7xx_hal_i2c.o
HAL_I2C_ListenCpltCallback                        Drivers/STM32F7xx_HAL_Driver/stm32f7xx_hal_i2c.o
HAL_I2C_MasterRxCpltCallback                      Drivers/STM32F7xx_HAL_Driver/stm32f7xx_hal_i2c.o
HAL_I2C_MasterTxCpltCallback                      Drivers/STM32F7xx_HAL_Driver/stm32f7xx_hal_i2c.o
HAL_I2C_Master_Abort_IT                           Drivers/STM32F7xx_HAL_Driver/stm32f7xx_hal_i2c.o
HAL_I2C_Master_Receive                            Drivers/STM32F7xx_HAL_Driver/stm32f7xx_hal_i2c.o
HAL_I2C_Master_Receive_DMA                        Drivers/STM32F7xx_HAL_Driver/stm32f7xx_hal_i2c.o
HAL_I2C_Master_Receive_IT                         Drivers/STM32F7xx_HAL_Driver/stm32f7xx_hal_i2c.o
HAL_I2C_Master_Sequential_Receive_IT              Drivers/STM32F7xx_HAL_Driver/stm32f7xx_hal_i2c.o
HAL_I2C_Master_Sequential_Transmit_IT             Drivers/STM32F7xx_HAL_Driver/stm32f7xx_hal_i2c.o
HAL_I2C_Master_Transmit                           Drivers/STM32F7xx_HAL_Driver/stm32f7xx_hal_i2c.o
HAL_I2C_Master_Transmit_DMA                       Drivers/STM32F7xx_HAL_Driver/stm32f7xx_hal_i2c.o
HAL_I2C_Master_Transmit_IT                        Drivers/STM32F7xx_HAL_Driver/stm32f7xx_hal_i2c.o
HAL_I2C_MemRxCpltCallback                         Drivers/STM32F7xx_HAL_Driver/stm32f7xx_hal_i2c.o
HAL_I2C_MemTxCpltCallback                         Drivers/STM32F7xx_HAL_Driver/stm32f7xx_hal_i2c.o
HAL_I2C_Mem_Read                                  Drivers/STM32F7xx_HAL_Driver/stm32f7xx_hal_i2c.o
HAL_I2C_Mem_Read_DMA                              Drivers/STM32F7xx_HAL_Driver/stm32f7xx_hal_i2c.o
HAL_I2C_Mem_Read_IT                               Drivers/STM32F7xx_HAL_Driver/stm32f7xx_hal_i2c.o
HAL_I2C_Mem_Write                                 Drivers/STM32F7xx_HAL_Driver/stm32f7xx_hal_i2c.o
HAL_I2C_Mem_Write_DMA                             Drivers/STM32F7xx_HAL_Driver/stm32f7xx_hal_i2c.o
HAL_I2C_Mem_Write_IT                              Drivers/STM32F7xx_HAL_Driver/stm32f7xx_hal_i2c.o
HAL_I2C_MspDeInit                                 Application/User/i2c.o
HAL_I2C_MspInit                                   Application/User/i2c.o
HAL_I2C_SlaveRxCpltCallback                       Drivers/STM32F7xx_HAL_Driver/stm32f7xx_hal_i2c.o
HAL_I2C_SlaveTxCpltCallback                       Drivers/STM32F7xx_HAL_Driver/stm32f7xx_hal_i2c.o
HAL_I2C_Slave_Receive                             Drivers/STM32F7xx_HAL_Driver/stm32f7xx_hal_i2c.o
HAL_I2C_Slave_Receive_DMA                         Drivers/STM32F7xx_HAL_Driver/stm32f7xx_hal_i2c.o
HAL_I2C_Slave_Receive_IT                          Drivers/STM32F7xx_HAL_Driver/stm32f7xx_hal_i2c.o
HAL_I2C_Slave_Sequential_Receive_IT               Drivers/STM32F7xx_HAL_Driver/stm32f7xx_hal_i2c.o
HAL_I2C_Slave_Sequential_Transmit_IT              Drivers/STM32F7xx_HAL_Driver/stm32f7xx_hal_i2c.o
HAL_I2C_Slave_Transmit                            Drivers/STM32F7xx_HAL_Driver/stm32f7xx_hal_i2c.o
HAL_I2C_Slave_Transmit_DMA                        Drivers/STM32F7xx_HAL_Driver/stm32f7xx_hal_i2c.o
HAL_I2C_Slave_Transmit_IT                         Drivers/STM32F7xx_HAL_Driver/stm32f7xx_hal_i2c.o
HAL_IncTick                                       Drivers/STM32F7xx_HAL_Driver/stm32f7xx_hal.o
                                                  Application/User/main.o
HAL_Init                                          Drivers/STM32F7xx_HAL_Driver/stm32f7xx_hal.o
                                                  Application/User/main.o
HAL_InitTick                                      Application/User/stm32f7xx_hal_timebase_TIM.o
                                                  Drivers/STM32F7xx_HAL_Driver/stm32f7xx_hal_rcc.o
HAL_LIN_Init                                      Drivers/STM32F7xx_HAL_Driver/stm32f7xx_hal_uart.o
HAL_LIN_SendBreak                                 Drivers/STM32F7xx_HAL_Driver/stm32f7xx_hal_uart.o
HAL_MPU_ConfigRegion                              Drivers/STM32F7xx_HAL_Driver/stm32f7xx_hal_cortex.o
HAL_MPU_Disable                                   Drivers/STM32F7xx_HAL_Driver/stm32f7xx_hal_cortex.o
HAL_MPU_Enable                                    Drivers/STM32F7xx_HAL_Driver/stm32f7xx_hal_cortex.o
HAL_MspDeInit                                     Drivers/STM32F7xx_HAL_Driver/stm32f7xx_hal.o
HAL_MspInit                                       Application/User/stm32f7xx_hal_msp.o
HAL_MultiProcessorEx_AddressLength_Set            Drivers/STM32F7xx_HAL_Driver/stm32f7xx_hal_uart.o
HAL_MultiProcessor_DisableMuteMode                Drivers/STM32F7xx_HAL_Driver/stm32f7xx_hal_uart.o
HAL_MultiProcessor_EnableMuteMode                 Drivers/STM32F7xx_HAL_Driver/stm32f7xx_hal_uart.o
HAL_MultiProcessor_EnterMuteMode                  Drivers/STM32F7xx_HAL_Driver/stm32f7xx_hal_uart.o
HAL_MultiProcessor_Init                           Drivers/STM32F7xx_HAL_Driver/stm32f7xx_hal_uart.o
HAL_NVIC_ClearPendingIRQ                          Drivers/STM32F7xx_HAL_Driver/stm32f7xx_hal_cortex.o
HAL_NVIC_DisableIRQ                               Drivers/STM32F7xx_HAL_Driver/stm32f7xx_hal_cortex.o
HAL_NVIC_EnableIRQ                                Drivers/STM32F7xx_HAL_Driver/stm32f7xx_hal_cortex.o
                                                  Application/User/stm32f7xx_hal_timebase_TIM.o
                                                  Application/User/dma.o
HAL_NVIC_GetActive                                Drivers/STM32F7xx_HAL_Driver/stm32f7xx_hal_cortex.o
HAL_NVIC_GetPendingIRQ                            Drivers/STM32F7xx_HAL_Driver/stm32f7xx_hal_cortex.o
HAL_NVIC_GetPriority                              Drivers/STM32F7xx_HAL_Driver/stm32f7xx_hal_cortex.o
HAL_NVIC_GetPriorityGrouping                      Drivers/STM32F7xx_HAL_Driver/stm32f7xx_hal_cortex.o
HAL_NVIC_SetPendingIRQ                            Drivers/STM32F7xx_HAL_Driver/stm32f7xx_hal_cortex.o
HAL_NVIC_SetPriority                              Drivers/STM32F7xx_HAL_Driver/stm32f7xx_hal_cortex.o
                                                  Drivers/STM32F7xx_HAL_Driver/stm32f7xx_hal.o
                                                  Application/User/stm32f7xx_hal_timebase_TIM.o
                                                  Application/User/stm32f7xx_hal_msp.o
                                                  Application/User/main.o
                                                  Application/User/dma.o
HAL_NVIC_SetPriorityGrouping                      Drivers/STM32F7xx_HAL_Driver/stm32f7xx_hal_cortex.o
                                                  Drivers/STM32F7xx_HAL_Driver/stm32f7xx_hal.o
                                                  Application/User/stm32f7xx_hal_msp.o
HAL_NVIC_SystemReset                              Drivers/STM32F7xx_HAL_Driver/stm32f7xx_hal_cortex.o
HAL_PCDEx_ActivateLPM                             Drivers/STM32F7xx_HAL_Driver/stm32f7xx_hal_pcd_ex.o
                                                  Drivers/STM32F7xx_HAL_Driver/stm32f7xx_hal_pcd.o
HAL_PCDEx_DeActivateLPM                           Drivers/STM32F7xx_HAL_Driver/stm32f7xx_hal_pcd_ex.o
HAL_PCDEx_LPM_Callback                            Drivers/STM32F7xx_HAL_Driver/stm32f7xx_hal_pcd_ex.o
                                                  Drivers/STM32F7xx_HAL_Driver/stm32f7xx_hal_pcd.o
HAL_PCDEx_SetRxFiFo                               Drivers/STM32F7xx_HAL_Driver/stm32f7xx_hal_pcd_ex.o
HAL_PCDEx_SetTxFiFo                               Drivers/STM32F7xx_HAL_Driver/stm32f7xx_hal_pcd_ex.o
HAL_PCD_ActivateRemoteWakeup                      Drivers/STM32F7xx_HAL_Driver/stm32f7xx_hal_pcd.o
HAL_PCD_ConnectCallback                           Drivers/STM32F7xx_HAL_Driver/stm32f7xx_hal_pcd.o
HAL_PCD_DataInStageCallback                       Drivers/STM32F7xx_HAL_Driver/stm32f7xx_hal_pcd.o
HAL_PCD_DataOutStageCallback                      Drivers/STM32F7xx_HAL_Driver/stm32f7xx_hal_pcd.o
HAL_PCD_DeActivateRemoteWakeup                    Drivers/STM32F7xx_HAL_Driver/stm32f7xx_hal_pcd.o
HAL_PCD_DeInit                                    Drivers/STM32F7xx_HAL_Driver/stm32f7xx_hal_pcd.o
HAL_PCD_DevConnect                                Drivers/STM32F7xx_HAL_Driver/stm32f7xx_hal_pcd.o
HAL_PCD_DevDisconnect                             Drivers/STM32F7xx_HAL_Driver/stm32f7xx_hal_pcd.o
HAL_PCD_DisconnectCallback                        Drivers/STM32F7xx_HAL_Driver/stm32f7xx_hal_pcd.o
HAL_PCD_EP_Close                                  Drivers/STM32F7xx_HAL_Driver/stm32f7xx_hal_pcd.o
HAL_PCD_EP_ClrStall                               Drivers/STM32F7xx_HAL_Driver/stm32f7xx_hal_pcd.o
HAL_PCD_EP_Flush                                  Drivers/STM32F7xx_HAL_Driver/stm32f7xx_hal_pcd.o
HAL_PCD_EP_GetRxCount                             Drivers/STM32F7xx_HAL_Driver/stm32f7xx_hal_pcd.o
HAL_PCD_EP_Open                                   Drivers/STM32F7xx_HAL_Driver/stm32f7xx_hal_pcd.o
HAL_PCD_EP_Receive                                Drivers/STM32F7xx_HAL_Driver/stm32f7xx_hal_pcd.o
HAL_PCD_EP_SetStall                               Drivers/STM32F7xx_HAL_Driver/stm32f7xx_hal_pcd.o
HAL_PCD_EP_Transmit                               Drivers/STM32F7xx_HAL_Driver/stm32f7xx_hal_pcd.o
HAL_PCD_GetState                                  Drivers/STM32F7xx_HAL_Driver/stm32f7xx_hal_pcd.o
HAL_PCD_IRQHandler                                Drivers/STM32F7xx_HAL_Driver/stm32f7xx_hal_pcd.o
HAL_PCD_ISOINIncompleteCallback                   Drivers/STM32F7xx_HAL_Driver/stm32f7xx_hal_pcd.o
HAL_PCD_ISOOUTIncompleteCallback                  Drivers/STM32F7xx_HAL_Driver/stm32f7xx_hal_pcd.o
HAL_PCD_Init                                      Drivers/STM32F7xx_HAL_Driver/stm32f7xx_hal_pcd.o
                                                  Application/User/usb_otg.o
HAL_PCD_MspDeInit                                 Application/User/usb_otg.o
HAL_PCD_MspInit                                   Application/User/usb_otg.o
HAL_PCD_ResetCallback                             Drivers/STM32F7xx_HAL_Driver/stm32f7xx_hal_pcd.o
HAL_PCD_ResumeCallback                            Drivers/STM32F7xx_HAL_Driver/stm32f7xx_hal_pcd.o
HAL_PCD_SOFCallback                               Drivers/STM32F7xx_HAL_Driver/stm32f7xx_hal_pcd.o
HAL_PCD_SetAddress                                Drivers/STM32F7xx_HAL_Driver/stm32f7xx_hal_pcd.o
HAL_PCD_SetupStageCallback                        Drivers/STM32F7xx_HAL_Driver/stm32f7xx_hal_pcd.o
HAL_PCD_Start                                     Drivers/STM32F7xx_HAL_Driver/stm32f7xx_hal_pcd.o
HAL_PCD_Stop                                      Drivers/STM32F7xx_HAL_Driver/stm32f7xx_hal_pcd.o
HAL_PCD_SuspendCallback                           Drivers/STM32F7xx_HAL_Driver/stm32f7xx_hal_pcd.o
HAL_PWREx_ControlVoltageScaling                   Drivers/STM32F7xx_HAL_Driver/stm32f7xx_hal_pwr_ex.o
HAL_PWREx_DisableBkUpReg                          Drivers/STM32F7xx_HAL_Driver/stm32f7xx_hal_pwr_ex.o
HAL_PWREx_DisableFlashPowerDown                   Drivers/STM32F7xx_HAL_Driver/stm32f7xx_hal_pwr_ex.o
HAL_PWREx_DisableLowRegulatorLowVoltage           Drivers/STM32F7xx_HAL_Driver/stm32f7xx_hal_pwr_ex.o
HAL_PWREx_DisableMainRegulatorLowVoltage          Drivers/STM32F7xx_HAL_Driver/stm32f7xx_hal_pwr_ex.o
HAL_PWREx_DisableOverDrive                        Drivers/STM32F7xx_HAL_Driver/stm32f7xx_hal_pwr_ex.o
HAL_PWREx_EnableBkUpReg                           Drivers/STM32F7xx_HAL_Driver/stm32f7xx_hal_pwr_ex.o
HAL_PWREx_EnableFlashPowerDown                    Drivers/STM32F7xx_HAL_Driver/stm32f7xx_hal_pwr_ex.o
HAL_PWREx_EnableLowRegulatorLowVoltage            Drivers/STM32F7xx_HAL_Driver/stm32f7xx_hal_pwr_ex.o
HAL_PWREx_EnableMainRegulatorLowVoltage           Drivers/STM32F7xx_HAL_Driver/stm32f7xx_hal_pwr_ex.o
HAL_PWREx_EnableOverDrive                         Drivers/STM32F7xx_HAL_Driver/stm32f7xx_hal_pwr_ex.o
                                                  Application/User/main.o
HAL_PWREx_EnterUnderDriveSTOPMode                 Drivers/STM32F7xx_HAL_Driver/stm32f7xx_hal_pwr_ex.o
HAL_PWREx_GetVoltageRange                         Drivers/STM32F7xx_HAL_Driver/stm32f7xx_hal_pwr_ex.o
HAL_PWR_ConfigPVD                                 Drivers/STM32F7xx_HAL_Driver/stm32f7xx_hal_pwr.o
HAL_PWR_DeInit                                    Drivers/STM32F7xx_HAL_Driver/stm32f7xx_hal_pwr.o
HAL_PWR_DisableBkUpAccess                         Drivers/STM32F7xx_HAL_Driver/stm32f7xx_hal_pwr.o
HAL_PWR_DisablePVD                                Drivers/STM32F7xx_HAL_Driver/stm32f7xx_hal_pwr.o
HAL_PWR_DisableSEVOnPend                          Drivers/STM32F7xx_HAL_Driver/stm32f7xx_hal_pwr.o
HAL_PWR_DisableSleepOnExit                        Drivers/STM32F7xx_HAL_Driver/stm32f7xx_hal_pwr.o
HAL_PWR_DisableWakeUpPin                          Drivers/STM32F7xx_HAL_Driver/stm32f7xx_hal_pwr.o
HAL_PWR_EnableBkUpAccess                          Drivers/STM32F7xx_HAL_Driver/stm32f7xx_hal_pwr.o
HAL_PWR_EnablePVD                                 Drivers/STM32F7xx_HAL_Driver/stm32f7xx_hal_pwr.o
HAL_PWR_EnableSEVOnPend                           Drivers/STM32F7xx_HAL_Driver/stm32f7xx_hal_pwr.o
HAL_PWR_EnableSleepOnExit                         Drivers/STM32F7xx_HAL_Driver/stm32f7xx_hal_pwr.o
HAL_PWR_EnableWakeUpPin                           Drivers/STM32F7xx_HAL_Driver/stm32f7xx_hal_pwr.o
HAL_PWR_EnterSLEEPMode                            Drivers/STM32F7xx_HAL_Driver/stm32f7xx_hal_pwr.o
HAL_PWR_EnterSTANDBYMode                          Drivers/STM32F7xx_HAL_Driver/stm32f7xx_hal_pwr.o
HAL_PWR_EnterSTOPMode                             Drivers/STM32F7xx_HAL_Driver/stm32f7xx_hal_pwr.o
HAL_PWR_PVDCallback                               Drivers/STM32F7xx_HAL_Driver/stm32f7xx_hal_pwr.o
HAL_PWR_PVD_IRQHandler                            Drivers/STM32F7xx_HAL_Driver/stm32f7xx_hal_pwr.o
HAL_RCCEx_GetPeriphCLKConfig                      Drivers/STM32F7xx_HAL_Driver/stm32f7xx_hal_rcc_ex.o
HAL_RCCEx_GetPeriphCLKFreq                        Drivers/STM32F7xx_HAL_Driver/stm32f7xx_hal_rcc_ex.o
HAL_RCCEx_PeriphCLKConfig                         Drivers/STM32F7xx_HAL_Driver/stm32f7xx_hal_rcc_ex.o
                                                  Application/User/main.o
HAL_RCC_CSSCallback                               Drivers/STM32F7xx_HAL_Driver/stm32f7xx_hal_rcc.o
HAL_RCC_ClockConfig                               Drivers/STM32F7xx_HAL_Driver/stm32f7xx_hal_rcc.o
                                                  Application/User/main.o
HAL_RCC_DeInit                                    Drivers/STM32F7xx_HAL_Driver/stm32f7xx_hal_rcc.o
HAL_RCC_DisableCSS                                Drivers/STM32F7xx_HAL_Driver/stm32f7xx_hal_rcc.o
HAL_RCC_EnableCSS                                 Drivers/STM32F7xx_HAL_Driver/stm32f7xx_hal_rcc.o
HAL_RCC_GetClockConfig                            Drivers/STM32F7xx_HAL_Driver/stm32f7xx_hal_rcc.o
                                                  Application/User/stm32f7xx_hal_timebase_TIM.o
HAL_RCC_GetHCLKFreq                               Drivers/STM32F7xx_HAL_Driver/stm32f7xx_hal_rcc.o
                                                  Drivers/STM32F7xx_HAL_Driver/stm32f7xx_hal_pcd.o
                                                  Application/User/main.o
HAL_RCC_GetOscConfig                              Drivers/STM32F7xx_HAL_Driver/stm32f7xx_hal_rcc.o
HAL_RCC_GetPCLK1Freq                              Drivers/STM32F7xx_HAL_Driver/stm32f7xx_hal_rcc.o
                                                  Drivers/STM32F7xx_HAL_Driver/stm32f7xx_hal_uart.o
                                                  Application/User/stm32f7xx_hal_timebase_TIM.o
HAL_RCC_GetPCLK2Freq                              Drivers/STM32F7xx_HAL_Driver/stm32f7xx_hal_rcc.o
                                                  Drivers/STM32F7xx_HAL_Driver/stm32f7xx_hal_uart.o
HAL_RCC_GetSysClockFreq                           Drivers/STM32F7xx_HAL_Driver/stm32f7xx_hal_rcc.o
                                                  Drivers/STM32F7xx_HAL_Driver/stm32f7xx_hal_uart.o
HAL_RCC_MCOConfig                                 Drivers/STM32F7xx_HAL_Driver/stm32f7xx_hal_rcc.o
HAL_RCC_NMI_IRQHandler                            Drivers/STM32F7xx_HAL_Driver/stm32f7xx_hal_rcc.o
HAL_RCC_OscConfig                                 Drivers/STM32F7xx_HAL_Driver/stm32f7xx_hal_rcc.o
                                                  Application/User/main.o
HAL_RS485Ex_Init                                  Drivers/STM32F7xx_HAL_Driver/stm32f7xx_hal_uart.o
HAL_ResumeTick                                    Application/User/stm32f7xx_hal_timebase_TIM.o
HAL_SPI_Abort                                     Drivers/STM32F7xx_HAL_Driver/stm32f7xx_hal_spi.o
HAL_SPI_AbortCpltCallback                         Drivers/STM32F7xx_HAL_Driver/stm32f7xx_hal_spi.o
HAL_SPI_Abort_IT                                  Drivers/STM32F7xx_HAL_Driver/stm32f7xx_hal_spi.o
HAL_SPI_DMAPause                                  Drivers/STM32F7xx_HAL_Driver/stm32f7xx_hal_spi.o
HAL_SPI_DMAResume                                 Drivers/STM32F7xx_HAL_Driver/stm32f7xx_hal_spi.o
HAL_SPI_DMAStop                                   Drivers/STM32F7xx_HAL_Driver/stm32f7xx_hal_spi.o
HAL_SPI_DeInit                                    Drivers/STM32F7xx_HAL_Driver/stm32f7xx_hal_spi.o
HAL_SPI_ErrorCallback                             Drivers/STM32F7xx_HAL_Driver/stm32f7xx_hal_spi.o
HAL_SPI_GetError                                  Drivers/STM32F7xx_HAL_Driver/stm32f7xx_hal_spi.o
HAL_SPI_GetState                                  Drivers/STM32F7xx_HAL_Driver/stm32f7xx_hal_spi.o
HAL_SPI_IRQHandler                                Drivers/STM32F7xx_HAL_Driver/stm32f7xx_hal_spi.o
HAL_SPI_Init                                      Drivers/STM32F7xx_HAL_Driver/stm32f7xx_hal_spi.o
                                                  Application/User/spi.o
HAL_SPI_MspDeInit                                 Application/User/spi.o
HAL_SPI_MspInit                                   Application/User/spi.o
HAL_SPI_Receive                                   Drivers/STM32F7xx_HAL_Driver/stm32f7xx_hal_spi.o
HAL_SPI_Receive_DMA                               Drivers/STM32F7xx_HAL_Driver/stm32f7xx_hal_spi.o
HAL_SPI_Receive_IT                                Drivers/STM32F7xx_HAL_Driver/stm32f7xx_hal_spi.o
HAL_SPI_RxCpltCallback                            Drivers/STM32F7xx_HAL_Driver/stm32f7xx_hal_spi.o
HAL_SPI_RxHalfCpltCallback                        Drivers/STM32F7xx_HAL_Driver/stm32f7xx_hal_spi.o
HAL_SPI_Transmit                                  Drivers/STM32F7xx_HAL_Driver/stm32f7xx_hal_spi.o
HAL_SPI_TransmitReceive                           Drivers/STM32F7xx_HAL_Driver/stm32f7xx_hal_spi.o
HAL_SPI_TransmitReceive_DMA                       Drivers/STM32F7xx_HAL_Driver/stm32f7xx_hal_spi.o
HAL_SPI_TransmitReceive_IT                        Drivers/STM32F7xx_HAL_Driver/stm32f7xx_hal_spi.o
HAL_SPI_Transmit_DMA                              Drivers/STM32F7xx_HAL_Driver/stm32f7xx_hal_spi.o
HAL_SPI_Transmit_IT                               Drivers/STM32F7xx_HAL_Driver/stm32f7xx_hal_spi.o
HAL_SPI_TxCpltCallback                            Drivers/STM32F7xx_HAL_Driver/stm32f7xx_hal_spi.o
HAL_SPI_TxHalfCpltCallback                        Drivers/STM32F7xx_HAL_Driver/stm32f7xx_hal_spi.o
HAL_SPI_TxRxCpltCallback                          Drivers/STM32F7xx_HAL_Driver/stm32f7xx_hal_spi.o
HAL_SPI_TxRxHalfCpltCallback                      Drivers/STM32F7xx_HAL_Driver/stm32f7xx_hal_spi.o
HAL_SYSTICK_CLKSourceConfig                       Drivers/STM32F7xx_HAL_Driver/stm32f7xx_hal_cortex.o
                                                  Application/User/main.o
HAL_SYSTICK_Callback                              Drivers/STM32F7xx_HAL_Driver/stm32f7xx_hal_cortex.o
HAL_SYSTICK_Config                                Drivers/STM32F7xx_HAL_Driver/stm32f7xx_hal_cortex.o
                                                  Drivers/STM32F7xx_HAL_Driver/stm32f7xx_hal.o
                                                  Application/User/main.o
HAL_SYSTICK_IRQHandler                            Drivers/STM32F7xx_HAL_Driver/stm32f7xx_hal_cortex.o
HAL_SuspendTick                                   Application/User/stm32f7xx_hal_timebase_TIM.o
HAL_TIMEx_BreakCallback                           Drivers/STM32F7xx_HAL_Driver/stm32f7xx_hal_tim_ex.o
                                                  Drivers/STM32F7xx_HAL_Driver/stm32f7xx_hal_tim.o
HAL_TIMEx_CommutationCallback                     Drivers/STM32F7xx_HAL_Driver/stm32f7xx_hal_tim_ex.o
                                                  Drivers/STM32F7xx_HAL_Driver/stm32f7xx_hal_tim.o
HAL_TIMEx_ConfigBreakDeadTime                     Drivers/STM32F7xx_HAL_Driver/stm32f7xx_hal_tim_ex.o
                                                  Application/User/tim.o
HAL_TIMEx_ConfigBreakInput                        Drivers/STM32F7xx_HAL_Driver/stm32f7xx_hal_tim_ex.o
HAL_TIMEx_ConfigCommutationEvent                  Drivers/STM32F7xx_HAL_Driver/stm32f7xx_hal_tim_ex.o
HAL_TIMEx_ConfigCommutationEvent_DMA              Drivers/STM32F7xx_HAL_Driver/stm32f7xx_hal_tim_ex.o
HAL_TIMEx_ConfigCommutationEvent_IT               Drivers/STM32F7xx_HAL_Driver/stm32f7xx_hal_tim_ex.o
HAL_TIMEx_GroupChannel5                           Drivers/STM32F7xx_HAL_Driver/stm32f7xx_hal_tim_ex.o
HAL_TIMEx_HallSensor_DeInit                       Drivers/STM32F7xx_HAL_Driver/stm32f7xx_hal_tim_ex.o
HAL_TIMEx_HallSensor_GetState                     Drivers/STM32F7xx_HAL_Driver/stm32f7xx_hal_tim_ex.o
HAL_TIMEx_HallSensor_Init                         Drivers/STM32F7xx_HAL_Driver/stm32f7xx_hal_tim_ex.o
HAL_TIMEx_HallSensor_MspDeInit                    Drivers/STM32F7xx_HAL_Driver/stm32f7xx_hal_tim_ex.o
HAL_TIMEx_HallSensor_MspInit                      Drivers/STM32F7xx_HAL_Driver/stm32f7xx_hal_tim_ex.o
HAL_TIMEx_HallSensor_Start                        Drivers/STM32F7xx_HAL_Driver/stm32f7xx_hal_tim_ex.o
HAL_TIMEx_HallSensor_Start_DMA                    Drivers/STM32F7xx_HAL_Driver/stm32f7xx_hal_tim_ex.o
HAL_TIMEx_HallSensor_Start_IT                     Drivers/STM32F7xx_HAL_Driver/stm32f7xx_hal_tim_ex.o
HAL_TIMEx_HallSensor_Stop                         Drivers/STM32F7xx_HAL_Driver/stm32f7xx_hal_tim_ex.o
HAL_TIMEx_HallSensor_Stop_DMA                     Drivers/STM32F7xx_HAL_Driver/stm32f7xx_hal_tim_ex.o
HAL_TIMEx_HallSensor_Stop_IT                      Drivers/STM32F7xx_HAL_Driver/stm32f7xx_hal_tim_ex.o
HAL_TIMEx_MasterConfigSynchronization             Drivers/STM32F7xx_HAL_Driver/stm32f7xx_hal_tim_ex.o
                                                  Application/User/tim.o
HAL_TIMEx_OCN_Start                               Drivers/STM32F7xx_HAL_Driver/stm32f7xx_hal_tim_ex.o
HAL_TIMEx_OCN_Start_DMA                           Drivers/STM32F7xx_HAL_Driver/stm32f7xx_hal_tim_ex.o
HAL_TIMEx_OCN_Start_IT                            Drivers/STM32F7xx_HAL_Driver/stm32f7xx_hal_tim_ex.o
HAL_TIMEx_OCN_Stop                                Drivers/STM32F7xx_HAL_Driver/stm32f7xx_hal_tim_ex.o
HAL_TIMEx_OCN_Stop_DMA                            Drivers/STM32F7xx_HAL_Driver/stm32f7xx_hal_tim_ex.o
HAL_TIMEx_OCN_Stop_IT                             Drivers/STM32F7xx_HAL_Driver/stm32f7xx_hal_tim_ex.o
HAL_TIMEx_OnePulseN_Start                         Drivers/STM32F7xx_HAL_Driver/stm32f7xx_hal_tim_ex.o
HAL_TIMEx_OnePulseN_Start_IT                      Drivers/STM32F7xx_HAL_Driver/stm32f7xx_hal_tim_ex.o
HAL_TIMEx_OnePulseN_Stop                          Drivers/STM32F7xx_HAL_Driver/stm32f7xx_hal_tim_ex.o
HAL_TIMEx_OnePulseN_Stop_IT                       Drivers/STM32F7xx_HAL_Driver/stm32f7xx_hal_tim_ex.o
HAL_TIMEx_PWMN_Start                              Drivers/STM32F7xx_HAL_Driver/stm32f7xx_hal_tim_ex.o
                                                  Application/User/SYSINIT/sysinitial.o
HAL_TIMEx_PWMN_Start_DMA                          Drivers/STM32F7xx_HAL_Driver/stm32f7xx_hal_tim_ex.o
HAL_TIMEx_PWMN_Start_IT                           Drivers/STM32F7xx_HAL_Driver/stm32f7xx_hal_tim_ex.o
HAL_TIMEx_PWMN_Stop                               Drivers/STM32F7xx_HAL_Driver/stm32f7xx_hal_tim_ex.o
HAL_TIMEx_PWMN_Stop_DMA                           Drivers/STM32F7xx_HAL_Driver/stm32f7xx_hal_tim_ex.o
HAL_TIMEx_PWMN_Stop_IT                            Drivers/STM32F7xx_HAL_Driver/stm32f7xx_hal_tim_ex.o
HAL_TIMEx_RemapConfig                             Drivers/STM32F7xx_HAL_Driver/stm32f7xx_hal_tim_ex.o
HAL_TIM_Base_DeInit                               Drivers/STM32F7xx_HAL_Driver/stm32f7xx_hal_tim.o
HAL_TIM_Base_GetState                             Drivers/STM32F7xx_HAL_Driver/stm32f7xx_hal_tim.o
HAL_TIM_Base_Init                                 Drivers/STM32F7xx_HAL_Driver/stm32f7xx_hal_tim.o
                                                  Application/User/tim.o
                                                  Application/User/stm32f7xx_hal_timebase_TIM.o
HAL_TIM_Base_MspDeInit                            Application/User/tim.o
HAL_TIM_Base_MspInit                              Application/User/tim.o
HAL_TIM_Base_Start                                Drivers/STM32F7xx_HAL_Driver/stm32f7xx_hal_tim.o
HAL_TIM_Base_Start_DMA                            Drivers/STM32F7xx_HAL_Driver/stm32f7xx_hal_tim.o
HAL_TIM_Base_Start_IT                             Drivers/STM32F7xx_HAL_Driver/stm32f7xx_hal_tim.o
                                                  Application/User/stm32f7xx_hal_timebase_TIM.o
HAL_TIM_Base_Stop                                 Drivers/STM32F7xx_HAL_Driver/stm32f7xx_hal_tim.o
HAL_TIM_Base_Stop_DMA                             Drivers/STM32F7xx_HAL_Driver/stm32f7xx_hal_tim.o
HAL_TIM_Base_Stop_IT                              Drivers/STM32F7xx_HAL_Driver/stm32f7xx_hal_tim.o
HAL_TIM_ConfigClockSource                         Drivers/STM32F7xx_HAL_Driver/stm32f7xx_hal_tim.o
                                                  Application/User/tim.o
HAL_TIM_ConfigOCrefClear                          Drivers/STM32F7xx_HAL_Driver/stm32f7xx_hal_tim_ex.o
                                                  Drivers/STM32F7xx_HAL_Driver/stm32f7xx_hal_tim.o
HAL_TIM_ConfigTI1Input                            Drivers/STM32F7xx_HAL_Driver/stm32f7xx_hal_tim.o
HAL_TIM_DMABurst_ReadStart                        Drivers/STM32F7xx_HAL_Driver/stm32f7xx_hal_tim.o
HAL_TIM_DMABurst_ReadStop                         Drivers/STM32F7xx_HAL_Driver/stm32f7xx_hal_tim.o
HAL_TIM_DMABurst_WriteStart                       Drivers/STM32F7xx_HAL_Driver/stm32f7xx_hal_tim.o
HAL_TIM_DMABurst_WriteStop                        Drivers/STM32F7xx_HAL_Driver/stm32f7xx_hal_tim.o
HAL_TIM_Encoder_DeInit                            Drivers/STM32F7xx_HAL_Driver/stm32f7xx_hal_tim.o
HAL_TIM_Encoder_GetState                          Drivers/STM32F7xx_HAL_Driver/stm32f7xx_hal_tim.o
HAL_TIM_Encoder_Init                              Drivers/STM32F7xx_HAL_Driver/stm32f7xx_hal_tim.o
HAL_TIM_Encoder_MspDeInit                         Drivers/STM32F7xx_HAL_Driver/stm32f7xx_hal_tim.o
HAL_TIM_Encoder_MspInit                           Drivers/STM32F7xx_HAL_Driver/stm32f7xx_hal_tim.o
HAL_TIM_Encoder_Start                             Drivers/STM32F7xx_HAL_Driver/stm32f7xx_hal_tim.o
HAL_TIM_Encoder_Start_DMA                         Drivers/STM32F7xx_HAL_Driver/stm32f7xx_hal_tim.o
HAL_TIM_Encoder_Start_IT                          Drivers/STM32F7xx_HAL_Driver/stm32f7xx_hal_tim.o
HAL_TIM_Encoder_Stop                              Drivers/STM32F7xx_HAL_Driver/stm32f7xx_hal_tim.o
HAL_TIM_Encoder_Stop_DMA                          Drivers/STM32F7xx_HAL_Driver/stm32f7xx_hal_tim.o
HAL_TIM_Encoder_Stop_IT                           Drivers/STM32F7xx_HAL_Driver/stm32f7xx_hal_tim.o
HAL_TIM_ErrorCallback                             Drivers/STM32F7xx_HAL_Driver/stm32f7xx_hal_tim.o
HAL_TIM_GenerateEvent                             Drivers/STM32F7xx_HAL_Driver/stm32f7xx_hal_tim.o
HAL_TIM_IC_CaptureCallback                        Drivers/STM32F7xx_HAL_Driver/stm32f7xx_hal_tim.o
HAL_TIM_IC_ConfigChannel                          Drivers/STM32F7xx_HAL_Driver/stm32f7xx_hal_tim.o
HAL_TIM_IC_DeInit                                 Drivers/STM32F7xx_HAL_Driver/stm32f7xx_hal_tim.o
HAL_TIM_IC_GetState                               Drivers/STM32F7xx_HAL_Driver/stm32f7xx_hal_tim.o
HAL_TIM_IC_Init                                   Drivers/STM32F7xx_HAL_Driver/stm32f7xx_hal_tim.o
HAL_TIM_IC_MspDeInit                              Drivers/STM32F7xx_HAL_Driver/stm32f7xx_hal_tim.o
HAL_TIM_IC_MspInit                                Drivers/STM32F7xx_HAL_Driver/stm32f7xx_hal_tim.o
HAL_TIM_IC_Start                                  Drivers/STM32F7xx_HAL_Driver/stm32f7xx_hal_tim.o
HAL_TIM_IC_Start_DMA                              Drivers/STM32F7xx_HAL_Driver/stm32f7xx_hal_tim.o
HAL_TIM_IC_Start_IT                               Drivers/STM32F7xx_HAL_Driver/stm32f7xx_hal_tim.o
HAL_TIM_IC_Stop                                   Drivers/STM32F7xx_HAL_Driver/stm32f7xx_hal_tim.o
HAL_TIM_IC_Stop_DMA                               Drivers/STM32F7xx_HAL_Driver/stm32f7xx_hal_tim.o
HAL_TIM_IC_Stop_IT                                Drivers/STM32F7xx_HAL_Driver/stm32f7xx_hal_tim.o
HAL_TIM_IRQHandler                                Drivers/STM32F7xx_HAL_Driver/stm32f7xx_hal_tim.o
                                                  Application/User/stm32f7xx_it.o
HAL_TIM_MspPostInit                               Application/User/tim.o
HAL_TIM_OC_ConfigChannel                          Drivers/STM32F7xx_HAL_Driver/stm32f7xx_hal_tim_ex.o
                                                  Drivers/STM32F7xx_HAL_Driver/stm32f7xx_hal_tim.o
HAL_TIM_OC_DeInit                                 Drivers/STM32F7xx_HAL_Driver/stm32f7xx_hal_tim.o
HAL_TIM_OC_DelayElapsedCallback                   Drivers/STM32F7xx_HAL_Driver/stm32f7xx_hal_tim.o
HAL_TIM_OC_GetState                               Drivers/STM32F7xx_HAL_Driver/stm32f7xx_hal_tim.o
HAL_TIM_OC_Init                                   Drivers/STM32F7xx_HAL_Driver/stm32f7xx_hal_tim.o
HAL_TIM_OC_MspDeInit                              Drivers/STM32F7xx_HAL_Driver/stm32f7xx_hal_tim.o
HAL_TIM_OC_MspInit                                Drivers/STM32F7xx_HAL_Driver/stm32f7xx_hal_tim.o
HAL_TIM_OC_Start                                  Drivers/STM32F7xx_HAL_Driver/stm32f7xx_hal_tim.o
HAL_TIM_OC_Start_DMA                              Drivers/STM32F7xx_HAL_Driver/stm32f7xx_hal_tim.o
HAL_TIM_OC_Start_IT                               Drivers/STM32F7xx_HAL_Driver/stm32f7xx_hal_tim.o
HAL_TIM_OC_Stop                                   Drivers/STM32F7xx_HAL_Driver/stm32f7xx_hal_tim.o
HAL_TIM_OC_Stop_DMA                               Drivers/STM32F7xx_HAL_Driver/stm32f7xx_hal_tim.o
HAL_TIM_OC_Stop_IT                                Drivers/STM32F7xx_HAL_Driver/stm32f7xx_hal_tim.o
HAL_TIM_OnePulse_ConfigChannel                    Drivers/STM32F7xx_HAL_Driver/stm32f7xx_hal_tim.o
HAL_TIM_OnePulse_DeInit                           Drivers/STM32F7xx_HAL_Driver/stm32f7xx_hal_tim.o
HAL_TIM_OnePulse_GetState                         Drivers/STM32F7xx_HAL_Driver/stm32f7xx_hal_tim.o
HAL_TIM_OnePulse_Init                             Drivers/STM32F7xx_HAL_Driver/stm32f7xx_hal_tim.o
HAL_TIM_OnePulse_MspDeInit                        Drivers/STM32F7xx_HAL_Driver/stm32f7xx_hal_tim.o
HAL_TIM_OnePulse_MspInit                          Drivers/STM32F7xx_HAL_Driver/stm32f7xx_hal_tim.o
HAL_TIM_OnePulse_Start                            Drivers/STM32F7xx_HAL_Driver/stm32f7xx_hal_tim.o
HAL_TIM_OnePulse_Start_IT                         Drivers/STM32F7xx_HAL_Driver/stm32f7xx_hal_tim.o
HAL_TIM_OnePulse_Stop                             Drivers/STM32F7xx_HAL_Driver/stm32f7xx_hal_tim.o
HAL_TIM_OnePulse_Stop_IT                          Drivers/STM32F7xx_HAL_Driver/stm32f7xx_hal_tim.o
HAL_TIM_PWM_ConfigChannel                         Drivers/STM32F7xx_HAL_Driver/stm32f7xx_hal_tim_ex.o
                                                  Drivers/STM32F7xx_HAL_Driver/stm32f7xx_hal_tim.o
                                                  Application/User/tim.o
HAL_TIM_PWM_DeInit                                Drivers/STM32F7xx_HAL_Driver/stm32f7xx_hal_tim.o
HAL_TIM_PWM_GetState                              Drivers/STM32F7xx_HAL_Driver/stm32f7xx_hal_tim.o
HAL_TIM_PWM_Init                                  Drivers/STM32F7xx_HAL_Driver/stm32f7xx_hal_tim.o
                                                  Application/User/tim.o
HAL_TIM_PWM_MspDeInit                             Drivers/STM32F7xx_HAL_Driver/stm32f7xx_hal_tim.o
HAL_TIM_PWM_MspInit                               Drivers/STM32F7xx_HAL_Driver/stm32f7xx_hal_tim.o
HAL_TIM_PWM_PulseFinishedCallback                 Drivers/STM32F7xx_HAL_Driver/stm32f7xx_hal_tim.o
HAL_TIM_PWM_Start                                 Drivers/STM32F7xx_HAL_Driver/stm32f7xx_hal_tim.o
                                                  Application/User/SYSINIT/sysinitial.o
HAL_TIM_PWM_Start_DMA                             Drivers/STM32F7xx_HAL_Driver/stm32f7xx_hal_tim.o
HAL_TIM_PWM_Start_IT                              Drivers/STM32F7xx_HAL_Driver/stm32f7xx_hal_tim.o
HAL_TIM_PWM_Stop                                  Drivers/STM32F7xx_HAL_Driver/stm32f7xx_hal_tim.o
HAL_TIM_PWM_Stop_DMA                              Drivers/STM32F7xx_HAL_Driver/stm32f7xx_hal_tim.o
HAL_TIM_PWM_Stop_IT                               Drivers/STM32F7xx_HAL_Driver/stm32f7xx_hal_tim.o
HAL_TIM_PeriodElapsedCallback                     Application/User/main.o
HAL_TIM_ReadCapturedValue                         Drivers/STM32F7xx_HAL_Driver/stm32f7xx_hal_tim.o
HAL_TIM_SlaveConfigSynchronization                Drivers/STM32F7xx_HAL_Driver/stm32f7xx_hal_tim.o
HAL_TIM_SlaveConfigSynchronization_IT             Drivers/STM32F7xx_HAL_Driver/stm32f7xx_hal_tim.o
HAL_TIM_TriggerCallback                           Drivers/STM32F7xx_HAL_Driver/stm32f7xx_hal_tim.o
HAL_UART_DMAPause                                 Drivers/STM32F7xx_HAL_Driver/stm32f7xx_hal_uart.o
HAL_UART_DMAResume                                Drivers/STM32F7xx_HAL_Driver/stm32f7xx_hal_uart.o
                                                  Application/User/ISRs/isrSensors.o
HAL_UART_DMAStop                                  Drivers/STM32F7xx_HAL_Driver/stm32f7xx_hal_uart.o
HAL_UART_DeInit                                   Drivers/STM32F7xx_HAL_Driver/stm32f7xx_hal_uart.o
HAL_UART_ErrorCallback                            Application/User/ISRs/isrSensors.o
HAL_UART_GetError                                 Drivers/STM32F7xx_HAL_Driver/stm32f7xx_hal_uart.o
HAL_UART_GetState                                 Drivers/STM32F7xx_HAL_Driver/stm32f7xx_hal_uart.o
HAL_UART_IRQHandler                               Drivers/STM32F7xx_HAL_Driver/stm32f7xx_hal_uart.o
HAL_UART_Init                                     Drivers/STM32F7xx_HAL_Driver/stm32f7xx_hal_uart.o
                                                  Application/User/usart.o
HAL_UART_MspDeInit                                Application/User/usart.o
HAL_UART_MspInit                                  Application/User/usart.o
HAL_UART_Receive                                  Drivers/STM32F7xx_HAL_Driver/stm32f7xx_hal_uart.o
HAL_UART_Receive_DMA                              Drivers/STM32F7xx_HAL_Driver/stm32f7xx_hal_uart.o
                                                  Application/User/SYSINIT/sysinitial.o
HAL_UART_Receive_IT                               Drivers/STM32F7xx_HAL_Driver/stm32f7xx_hal_uart.o
HAL_UART_RxCpltCallback                           Application/User/ISRs/isrSensors.o
HAL_UART_RxHalfCpltCallback                       Drivers/STM32F7xx_HAL_Driver/stm32f7xx_hal_uart.o
HAL_UART_Transmit                                 Drivers/STM32F7xx_HAL_Driver/stm32f7xx_hal_uart.o
                                                  Application/User/debug/datatraceDebug.o
HAL_UART_Transmit_DMA                             Drivers/STM32F7xx_HAL_Driver/stm32f7xx_hal_uart.o
HAL_UART_Transmit_IT                              Drivers/STM32F7xx_HAL_Driver/stm32f7xx_hal_uart.o
HAL_UART_TxCpltCallback                           Drivers/STM32F7xx_HAL_Driver/stm32f7xx_hal_uart.o
HAL_UART_TxHalfCpltCallback                       Drivers/STM32F7xx_HAL_Driver/stm32f7xx_hal_uart.o
HardFault_Handler                                 Application/User/stm32f7xx_it.o
                                                  Application/TrueSTUDIO/startup_stm32f765xx.o
I2C1_ER_IRQHandler                                Application/TrueSTUDIO/startup_stm32f765xx.o
I2C1_EV_IRQHandler                                Application/TrueSTUDIO/startup_stm32f765xx.o
I2C2_ER_IRQHandler                                Application/TrueSTUDIO/startup_stm32f765xx.o
I2C2_EV_IRQHandler                                Application/TrueSTUDIO/startup_stm32f765xx.o
I2C3_ER_IRQHandler                                Application/TrueSTUDIO/startup_stm32f765xx.o
I2C3_EV_IRQHandler                                Application/TrueSTUDIO/startup_stm32f765xx.o
I2C4_ER_IRQHandler                                Application/TrueSTUDIO/startup_stm32f765xx.o
I2C4_EV_IRQHandler                                Application/TrueSTUDIO/startup_stm32f765xx.o
LPTIM1_IRQHandler                                 Application/TrueSTUDIO/startup_stm32f765xx.o
MDIOS_IRQHandler                                  Application/TrueSTUDIO/startup_stm32f765xx.o
MX_DFSDM1_Init                                    Application/User/dfsdm.o
                                                  Application/User/main.o
MX_DMA_Init                                       Application/User/dma.o
                                                  Application/User/main.o
MX_FREERTOS_Init                                  Application/User/freertos.o
                                                  Application/User/main.o
MX_GPIO_Init                                      Application/User/gpio.o
                                                  Application/User/main.o
MX_I2C4_Init                                      Application/User/i2c.o
                                                  Application/User/main.o
MX_SPI1_Init                                      Application/User/spi.o
                                                  Application/User/main.o
MX_TIM1_Init                                      Application/User/tim.o
                                                  Application/User/main.o
MX_TIM2_Init                                      Application/User/tim.o
                                                  Application/User/main.o
MX_UART4_Init                                     Application/User/usart.o
                                                  Application/User/main.o
MX_UART8_Init                                     Application/User/usart.o
                                                  Application/User/main.o
MX_USART1_UART_Init                               Application/User/usart.o
                                                  Application/User/main.o
MX_USART3_UART_Init                               Application/User/usart.o
                                                  Application/User/main.o
MX_USB_OTG_HS_PCD_Init                            Application/User/usb_otg.o
                                                  Application/User/main.o
MemManage_Handler                                 Application/User/stm32f7xx_it.o
                                                  Application/TrueSTUDIO/startup_stm32f765xx.o
NMI_Handler                                       Application/User/stm32f7xx_it.o
                                                  Application/TrueSTUDIO/startup_stm32f765xx.o
OTG_FS_IRQHandler                                 Application/TrueSTUDIO/startup_stm32f765xx.o
OTG_FS_WKUP_IRQHandler                            Application/TrueSTUDIO/startup_stm32f765xx.o
OTG_HS_EP1_IN_IRQHandler                          Application/TrueSTUDIO/startup_stm32f765xx.o
OTG_HS_EP1_OUT_IRQHandler                         Application/TrueSTUDIO/startup_stm32f765xx.o
OTG_HS_IRQHandler                                 Application/TrueSTUDIO/startup_stm32f765xx.o
OTG_HS_WKUP_IRQHandler                            Application/TrueSTUDIO/startup_stm32f765xx.o
PVD_IRQHandler                                    Application/TrueSTUDIO/startup_stm32f765xx.o
PendSV_Handler                                    Middlewares/FreeRTOS/port.o
                                                  Application/TrueSTUDIO/startup_stm32f765xx.o
QUADSPI_IRQHandler                                Application/TrueSTUDIO/startup_stm32f765xx.o
RCC_IRQHandler                                    Application/TrueSTUDIO/startup_stm32f765xx.o
RNG_IRQHandler                                    Application/TrueSTUDIO/startup_stm32f765xx.o
RTC_Alarm_IRQHandler                              Application/TrueSTUDIO/startup_stm32f765xx.o
RTC_WKUP_IRQHandler                               Application/TrueSTUDIO/startup_stm32f765xx.o
Reset_Handler                                     Application/TrueSTUDIO/startup_stm32f765xx.o
SAI1_IRQHandler                                   Application/TrueSTUDIO/startup_stm32f765xx.o
SAI2_IRQHandler                                   Application/TrueSTUDIO/startup_stm32f765xx.o
SDMMC1_IRQHandler                                 Application/TrueSTUDIO/startup_stm32f765xx.o
SDMMC2_IRQHandler                                 Application/TrueSTUDIO/startup_stm32f765xx.o
SPDIF_RX_IRQHandler                               Application/TrueSTUDIO/startup_stm32f765xx.o
SPI1_IRQHandler                                   Application/TrueSTUDIO/startup_stm32f765xx.o
SPI2_IRQHandler                                   Application/TrueSTUDIO/startup_stm32f765xx.o
SPI3_IRQHandler                                   Application/TrueSTUDIO/startup_stm32f765xx.o
SPI4_IRQHandler                                   Application/TrueSTUDIO/startup_stm32f765xx.o
SPI5_IRQHandler                                   Application/TrueSTUDIO/startup_stm32f765xx.o
SPI6_IRQHandler                                   Application/TrueSTUDIO/startup_stm32f765xx.o
SVC_Handler                                       Middlewares/FreeRTOS/port.o
                                                  Application/TrueSTUDIO/startup_stm32f765xx.o
StartbuzzerrythmTask                              Application/User/Idletasks/idletasks.o
StartbuzzertoneTask                               Application/User/Idletasks/idletasks.o
StartcontrolTask                                  Application/User/Foc/controlFoc.o
StartenchallTask                                  Application/User/debug/datatraceDebug.o
StartiwdgTask                                     Application/User/Idletasks/idletasks.o
StartledblueTask                                  Application/User/Idletasks/idletasks.o
StartledgreenTask                                 Application/User/Idletasks/idletasks.o
SysTick_Handler                                   Application/User/stm32f7xx_it.o
                                                  Application/TrueSTUDIO/startup_stm32f765xx.o
SystemClock_Config                                Application/User/main.o
SystemCoreClock                                   Drivers/CMSIS/system_stm32f7xx.o
                                                  Middlewares/FreeRTOS/port.o
                                                  Drivers/STM32F7xx_HAL_Driver/stm32f7xx_hal_rcc.o
                                                  Drivers/STM32F7xx_HAL_Driver/stm32f7xx_hal_dma.o
                                                  Drivers/STM32F7xx_HAL_Driver/stm32f7xx_hal.o
SystemCoreClockUpdate                             Drivers/CMSIS/system_stm32f7xx.o
SystemInit                                        Drivers/CMSIS/system_stm32f7xx.o
                                                  Application/TrueSTUDIO/startup_stm32f765xx.o
SystemInitialization                              Application/User/SYSINIT/sysinitial.o
                                                  Application/User/main.o
TAMP_STAMP_IRQHandler                             Application/TrueSTUDIO/startup_stm32f765xx.o
TIM1_BRK_TIM9_IRQHandler                          Application/TrueSTUDIO/startup_stm32f765xx.o
TIM1_CC_IRQHandler                                Application/TrueSTUDIO/startup_stm32f765xx.o
TIM1_TRG_COM_TIM11_IRQHandler                     Application/TrueSTUDIO/startup_stm32f765xx.o
TIM1_UP_TIM10_IRQHandler                          Application/TrueSTUDIO/startup_stm32f765xx.o
TIM2_IRQHandler                                   Application/TrueSTUDIO/startup_stm32f765xx.o
TIM3_IRQHandler                                   Application/TrueSTUDIO/startup_stm32f765xx.o
TIM4_IRQHandler                                   Application/User/stm32f7xx_it.o
                                                  Application/TrueSTUDIO/startup_stm32f765xx.o
TIM5_IRQHandler                                   Application/TrueSTUDIO/startup_stm32f765xx.o
TIM6_DAC_IRQHandler                               Application/TrueSTUDIO/startup_stm32f765xx.o
TIM7_IRQHandler                                   Application/TrueSTUDIO/startup_stm32f765xx.o
TIM8_BRK_TIM12_IRQHandler                         Application/TrueSTUDIO/startup_stm32f765xx.o
TIM8_CC_IRQHandler                                Application/TrueSTUDIO/startup_stm32f765xx.o
TIM8_TRG_COM_TIM14_IRQHandler                     Application/TrueSTUDIO/startup_stm32f765xx.o
TIM8_UP_TIM13_IRQHandler                          Application/TrueSTUDIO/startup_stm32f765xx.o
TIMEx_DMACommutationCplt                          Drivers/STM32F7xx_HAL_Driver/stm32f7xx_hal_tim_ex.o
                                                  Drivers/STM32F7xx_HAL_Driver/stm32f7xx_hal_tim.o
TIM_Base_SetConfig                                Drivers/STM32F7xx_HAL_Driver/stm32f7xx_hal_tim.o
                                                  Drivers/STM32F7xx_HAL_Driver/stm32f7xx_hal_tim_ex.o
TIM_CCxChannelCmd                                 Drivers/STM32F7xx_HAL_Driver/stm32f7xx_hal_tim.o
                                                  Drivers/STM32F7xx_HAL_Driver/stm32f7xx_hal_tim_ex.o
TIM_DMACaptureCplt                                Drivers/STM32F7xx_HAL_Driver/stm32f7xx_hal_tim.o
                                                  Drivers/STM32F7xx_HAL_Driver/stm32f7xx_hal_tim_ex.o
TIM_DMADelayPulseCplt                             Drivers/STM32F7xx_HAL_Driver/stm32f7xx_hal_tim.o
                                                  Drivers/STM32F7xx_HAL_Driver/stm32f7xx_hal_tim_ex.o
TIM_DMAError                                      Drivers/STM32F7xx_HAL_Driver/stm32f7xx_hal_tim.o
                                                  Drivers/STM32F7xx_HAL_Driver/stm32f7xx_hal_tim_ex.o
TIM_ETR_SetConfig                                 Drivers/STM32F7xx_HAL_Driver/stm32f7xx_hal_tim.o
                                                  Drivers/STM32F7xx_HAL_Driver/stm32f7xx_hal_tim_ex.o
TIM_OC1_SetConfig                                 Drivers/STM32F7xx_HAL_Driver/stm32f7xx_hal_tim.o
                                                  Drivers/STM32F7xx_HAL_Driver/stm32f7xx_hal_tim_ex.o
TIM_OC2_SetConfig                                 Drivers/STM32F7xx_HAL_Driver/stm32f7xx_hal_tim.o
                                                  Drivers/STM32F7xx_HAL_Driver/stm32f7xx_hal_tim_ex.o
TIM_OC3_SetConfig                                 Drivers/STM32F7xx_HAL_Driver/stm32f7xx_hal_tim.o
                                                  Drivers/STM32F7xx_HAL_Driver/stm32f7xx_hal_tim_ex.o
TIM_OC4_SetConfig                                 Drivers/STM32F7xx_HAL_Driver/stm32f7xx_hal_tim.o
                                                  Drivers/STM32F7xx_HAL_Driver/stm32f7xx_hal_tim_ex.o
TIM_TI1_SetConfig                                 Drivers/STM32F7xx_HAL_Driver/stm32f7xx_hal_tim.o
                                                  Drivers/STM32F7xx_HAL_Driver/stm32f7xx_hal_tim_ex.o
UART4_IRQHandler                                  Application/TrueSTUDIO/startup_stm32f765xx.o
UART5_IRQHandler                                  Application/TrueSTUDIO/startup_stm32f765xx.o
UART7_IRQHandler                                  Application/TrueSTUDIO/startup_stm32f765xx.o
UART8_IRQHandler                                  Application/TrueSTUDIO/startup_stm32f765xx.o
UART_AdvFeatureConfig                             Drivers/STM32F7xx_HAL_Driver/stm32f7xx_hal_uart.o
UART_CheckIdleState                               Drivers/STM32F7xx_HAL_Driver/stm32f7xx_hal_uart.o
UART_SetConfig                                    Drivers/STM32F7xx_HAL_Driver/stm32f7xx_hal_uart.o
UART_WaitOnFlagUntilTimeout                       Drivers/STM32F7xx_HAL_Driver/stm32f7xx_hal_uart.o
USART1_IRQHandler                                 Application/TrueSTUDIO/startup_stm32f765xx.o
USART2_IRQHandler                                 Application/TrueSTUDIO/startup_stm32f765xx.o
USART3_IRQHandler                                 Application/TrueSTUDIO/startup_stm32f765xx.o
USART6_IRQHandler                                 Application/TrueSTUDIO/startup_stm32f765xx.o
USB_ActivateDedicatedEndpoint                     Drivers/STM32F7xx_HAL_Driver/stm32f7xx_ll_usb.o
USB_ActivateEndpoint                              Drivers/STM32F7xx_HAL_Driver/stm32f7xx_ll_usb.o
                                                  Drivers/STM32F7xx_HAL_Driver/stm32f7xx_hal_pcd.o
USB_ActivateSetup                                 Drivers/STM32F7xx_HAL_Driver/stm32f7xx_ll_usb.o
                                                  Drivers/STM32F7xx_HAL_Driver/stm32f7xx_hal_pcd.o
USB_ClearInterrupts                               Drivers/STM32F7xx_HAL_Driver/stm32f7xx_ll_usb.o
USB_CoreInit                                      Drivers/STM32F7xx_HAL_Driver/stm32f7xx_ll_usb.o
                                                  Drivers/STM32F7xx_HAL_Driver/stm32f7xx_hal_pcd.o
USB_DeactivateDedicatedEndpoint                   Drivers/STM32F7xx_HAL_Driver/stm32f7xx_ll_usb.o
USB_DeactivateEndpoint                            Drivers/STM32F7xx_HAL_Driver/stm32f7xx_ll_usb.o
                                                  Drivers/STM32F7xx_HAL_Driver/stm32f7xx_hal_pcd.o
USB_DevConnect                                    Drivers/STM32F7xx_HAL_Driver/stm32f7xx_ll_usb.o
                                                  Drivers/STM32F7xx_HAL_Driver/stm32f7xx_hal_pcd.o
USB_DevDisconnect                                 Drivers/STM32F7xx_HAL_Driver/stm32f7xx_ll_usb.o
                                                  Drivers/STM32F7xx_HAL_Driver/stm32f7xx_hal_pcd.o
USB_DevInit                                       Drivers/STM32F7xx_HAL_Driver/stm32f7xx_ll_usb.o
                                                  Drivers/STM32F7xx_HAL_Driver/stm32f7xx_hal_pcd.o
USB_DisableGlobalInt                              Drivers/STM32F7xx_HAL_Driver/stm32f7xx_ll_usb.o
                                                  Drivers/STM32F7xx_HAL_Driver/stm32f7xx_hal_pcd.o
USB_DoPing                                        Drivers/STM32F7xx_HAL_Driver/stm32f7xx_ll_usb.o
USB_DriveVbus                                     Drivers/STM32F7xx_HAL_Driver/stm32f7xx_ll_usb.o
USB_EP0StartXfer                                  Drivers/STM32F7xx_HAL_Driver/stm32f7xx_ll_usb.o
                                                  Drivers/STM32F7xx_HAL_Driver/stm32f7xx_hal_pcd.o
USB_EP0_OutStart                                  Drivers/STM32F7xx_HAL_Driver/stm32f7xx_ll_usb.o
                                                  Drivers/STM32F7xx_HAL_Driver/stm32f7xx_hal_pcd.o
USB_EPClearStall                                  Drivers/STM32F7xx_HAL_Driver/stm32f7xx_ll_usb.o
                                                  Drivers/STM32F7xx_HAL_Driver/stm32f7xx_hal_pcd.o
USB_EPSetStall                                    Drivers/STM32F7xx_HAL_Driver/stm32f7xx_ll_usb.o
                                                  Drivers/STM32F7xx_HAL_Driver/stm32f7xx_hal_pcd.o
USB_EPStartXfer                                   Drivers/STM32F7xx_HAL_Driver/stm32f7xx_ll_usb.o
                                                  Drivers/STM32F7xx_HAL_Driver/stm32f7xx_hal_pcd.o
USB_EnableGlobalInt                               Drivers/STM32F7xx_HAL_Driver/stm32f7xx_ll_usb.o
                                                  Drivers/STM32F7xx_HAL_Driver/stm32f7xx_hal_pcd.o
USB_FlushRxFifo                                   Drivers/STM32F7xx_HAL_Driver/stm32f7xx_ll_usb.o
                                                  Drivers/STM32F7xx_HAL_Driver/stm32f7xx_hal_pcd.o
USB_FlushTxFifo                                   Drivers/STM32F7xx_HAL_Driver/stm32f7xx_ll_usb.o
                                                  Drivers/STM32F7xx_HAL_Driver/stm32f7xx_hal_pcd.o
USB_GetCurrentFrame                               Drivers/STM32F7xx_HAL_Driver/stm32f7xx_ll_usb.o
USB_GetDevSpeed                                   Drivers/STM32F7xx_HAL_Driver/stm32f7xx_ll_usb.o
                                                  Drivers/STM32F7xx_HAL_Driver/stm32f7xx_hal_pcd.o
USB_GetHostSpeed                                  Drivers/STM32F7xx_HAL_Driver/stm32f7xx_ll_usb.o
USB_GetMode                                       Drivers/STM32F7xx_HAL_Driver/stm32f7xx_ll_usb.o
                                                  Drivers/STM32F7xx_HAL_Driver/stm32f7xx_hal_pcd.o
USB_HC_Halt                                       Drivers/STM32F7xx_HAL_Driver/stm32f7xx_ll_usb.o
USB_HC_Init                                       Drivers/STM32F7xx_HAL_Driver/stm32f7xx_ll_usb.o
USB_HC_ReadInterrupt                              Drivers/STM32F7xx_HAL_Driver/stm32f7xx_ll_usb.o
USB_HC_StartXfer                                  Drivers/STM32F7xx_HAL_Driver/stm32f7xx_ll_usb.o
USB_HostInit                                      Drivers/STM32F7xx_HAL_Driver/stm32f7xx_ll_usb.o
USB_InitFSLSPClkSel                               Drivers/STM32F7xx_HAL_Driver/stm32f7xx_ll_usb.o
USB_ReadDevAllInEpInterrupt                       Drivers/STM32F7xx_HAL_Driver/stm32f7xx_ll_usb.o
                                                  Drivers/STM32F7xx_HAL_Driver/stm32f7xx_hal_pcd.o
USB_ReadDevAllOutEpInterrupt                      Drivers/STM32F7xx_HAL_Driver/stm32f7xx_ll_usb.o
                                                  Drivers/STM32F7xx_HAL_Driver/stm32f7xx_hal_pcd.o
USB_ReadDevInEPInterrupt                          Drivers/STM32F7xx_HAL_Driver/stm32f7xx_ll_usb.o
                                                  Drivers/STM32F7xx_HAL_Driver/stm32f7xx_hal_pcd.o
USB_ReadDevOutEPInterrupt                         Drivers/STM32F7xx_HAL_Driver/stm32f7xx_ll_usb.o
                                                  Drivers/STM32F7xx_HAL_Driver/stm32f7xx_hal_pcd.o
USB_ReadInterrupts                                Drivers/STM32F7xx_HAL_Driver/stm32f7xx_ll_usb.o
                                                  Drivers/STM32F7xx_HAL_Driver/stm32f7xx_hal_pcd.o
USB_ReadPacket                                    Drivers/STM32F7xx_HAL_Driver/stm32f7xx_ll_usb.o
                                                  Drivers/STM32F7xx_HAL_Driver/stm32f7xx_hal_pcd.o
USB_ResetPort                                     Drivers/STM32F7xx_HAL_Driver/stm32f7xx_ll_usb.o
USB_SetCurrentMode                                Drivers/STM32F7xx_HAL_Driver/stm32f7xx_ll_usb.o
                                                  Drivers/STM32F7xx_HAL_Driver/stm32f7xx_hal_pcd.o
USB_SetDevAddress                                 Drivers/STM32F7xx_HAL_Driver/stm32f7xx_ll_usb.o
                                                  Drivers/STM32F7xx_HAL_Driver/stm32f7xx_hal_pcd.o
USB_SetDevSpeed                                   Drivers/STM32F7xx_HAL_Driver/stm32f7xx_ll_usb.o
USB_StopDevice                                    Drivers/STM32F7xx_HAL_Driver/stm32f7xx_ll_usb.o
                                                  Drivers/STM32F7xx_HAL_Driver/stm32f7xx_hal_pcd.o
USB_StopHost                                      Drivers/STM32F7xx_HAL_Driver/stm32f7xx_ll_usb.o
USB_WritePacket                                   Drivers/STM32F7xx_HAL_Driver/stm32f7xx_ll_usb.o
                                                  Drivers/STM32F7xx_HAL_Driver/stm32f7xx_hal_pcd.o
UsageFault_Handler                                Application/User/stm32f7xx_it.o
                                                  Application/TrueSTUDIO/startup_stm32f765xx.o
WWDG_IRQHandler                                   Application/TrueSTUDIO/startup_stm32f765xx.o
_Error_Handler                                    Application/User/main.o
                                                  Application/User/usb_otg.o
                                                  Application/User/usart.o
                                                  Application/User/tim.o
                                                  Application/User/spi.o
                                                  Application/User/i2c.o
                                                  Application/User/dfsdm.o
                                                  Application/User/ISRs/isrSensors.o
__deregister_frame_info                           /home/chen/IDEs/TrueStudio/ARMTools/bin/../lib/gcc/arm-atollic-eabi/6.3.1/armv7e-m/fpu/fpv5-d16/crtbegin.o
__dso_handle                                      /home/chen/IDEs/TrueStudio/ARMTools/bin/../lib/gcc/arm-atollic-eabi/6.3.1/armv7e-m/fpu/fpv5-d16/crtbegin.o
__ieee754_rem_pio2                                /home/chen/IDEs/TrueStudio/ARMTools/bin/../lib/gcc/arm-atollic-eabi/6.3.1/../../../../arm-atollic-eabi/lib/armv7e-m/fpu/fpv5-d16/libm.a(lib_a-e_rem_pio2.o)
                                                  /home/chen/IDEs/TrueStudio/ARMTools/bin/../lib/gcc/arm-atollic-eabi/6.3.1/../../../../arm-atollic-eabi/lib/armv7e-m/fpu/fpv5-d16/libm.a(lib_a-s_sin.o)
                                                  /home/chen/IDEs/TrueStudio/ARMTools/bin/../lib/gcc/arm-atollic-eabi/6.3.1/../../../../arm-atollic-eabi/lib/armv7e-m/fpu/fpv5-d16/libm.a(lib_a-s_cos.o)
__init_array_end                                  /home/chen/IDEs/TrueStudio/ARMTools/bin/../lib/gcc/arm-atollic-eabi/6.3.1/../../../../arm-atollic-eabi/lib/armv7e-m/fpu/fpv5-d16/libc_nano.a(lib_a-init.o)
__init_array_start                                /home/chen/IDEs/TrueStudio/ARMTools/bin/../lib/gcc/arm-atollic-eabi/6.3.1/../../../../arm-atollic-eabi/lib/armv7e-m/fpu/fpv5-d16/libc_nano.a(lib_a-init.o)
__kernel_cos                                      /home/chen/IDEs/TrueStudio/ARMTools/bin/../lib/gcc/arm-atollic-eabi/6.3.1/../../../../arm-atollic-eabi/lib/armv7e-m/fpu/fpv5-d16/libm.a(lib_a-k_cos.o)
                                                  /home/chen/IDEs/TrueStudio/ARMTools/bin/../lib/gcc/arm-atollic-eabi/6.3.1/../../../../arm-atollic-eabi/lib/armv7e-m/fpu/fpv5-d16/libm.a(lib_a-s_sin.o)
                                                  /home/chen/IDEs/TrueStudio/ARMTools/bin/../lib/gcc/arm-atollic-eabi/6.3.1/../../../../arm-atollic-eabi/lib/armv7e-m/fpu/fpv5-d16/libm.a(lib_a-s_cos.o)
__kernel_rem_pio2                                 /home/chen/IDEs/TrueStudio/ARMTools/bin/../lib/gcc/arm-atollic-eabi/6.3.1/../../../../arm-atollic-eabi/lib/armv7e-m/fpu/fpv5-d16/libm.a(lib_a-k_rem_pio2.o)
                                                  /home/chen/IDEs/TrueStudio/ARMTools/bin/../lib/gcc/arm-atollic-eabi/6.3.1/../../../../arm-atollic-eabi/lib/armv7e-m/fpu/fpv5-d16/libm.a(lib_a-e_rem_pio2.o)
__kernel_sin                                      /home/chen/IDEs/TrueStudio/ARMTools/bin/../lib/gcc/arm-atollic-eabi/6.3.1/../../../../arm-atollic-eabi/lib/armv7e-m/fpu/fpv5-d16/libm.a(lib_a-k_sin.o)
                                                  /home/chen/IDEs/TrueStudio/ARMTools/bin/../lib/gcc/arm-atollic-eabi/6.3.1/../../../../arm-atollic-eabi/lib/armv7e-m/fpu/fpv5-d16/libm.a(lib_a-s_sin.o)
                                                  /home/chen/IDEs/TrueStudio/ARMTools/bin/../lib/gcc/arm-atollic-eabi/6.3.1/../../../../arm-atollic-eabi/lib/armv7e-m/fpu/fpv5-d16/libm.a(lib_a-s_cos.o)
__libc_init_array                                 /home/chen/IDEs/TrueStudio/ARMTools/bin/../lib/gcc/arm-atollic-eabi/6.3.1/../../../../arm-atollic-eabi/lib/armv7e-m/fpu/fpv5-d16/libc_nano.a(lib_a-init.o)
                                                  Application/TrueSTUDIO/startup_stm32f765xx.o
__preinit_array_end                               /home/chen/IDEs/TrueStudio/ARMTools/bin/../lib/gcc/arm-atollic-eabi/6.3.1/../../../../arm-atollic-eabi/lib/armv7e-m/fpu/fpv5-d16/libc_nano.a(lib_a-init.o)
__preinit_array_start                             /home/chen/IDEs/TrueStudio/ARMTools/bin/../lib/gcc/arm-atollic-eabi/6.3.1/../../../../arm-atollic-eabi/lib/armv7e-m/fpu/fpv5-d16/libc_nano.a(lib_a-init.o)
__register_frame_info                             /home/chen/IDEs/TrueStudio/ARMTools/bin/../lib/gcc/arm-atollic-eabi/6.3.1/armv7e-m/fpu/fpv5-d16/crtbegin.o
_ebss                                             Application/TrueSTUDIO/startup_stm32f765xx.o
_edata                                            Application/TrueSTUDIO/startup_stm32f765xx.o
_estack                                           Application/TrueSTUDIO/startup_stm32f765xx.o
_fini                                             /home/chen/IDEs/TrueStudio/ARMTools/bin/../lib/gcc/arm-atollic-eabi/6.3.1/armv7e-m/fpu/fpv5-d16/crti.o
_init                                             /home/chen/IDEs/TrueStudio/ARMTools/bin/../lib/gcc/arm-atollic-eabi/6.3.1/armv7e-m/fpu/fpv5-d16/crti.o
                                                  /home/chen/IDEs/TrueStudio/ARMTools/bin/../lib/gcc/arm-atollic-eabi/6.3.1/../../../../arm-atollic-eabi/lib/armv7e-m/fpu/fpv5-d16/libc_nano.a(lib_a-init.o)
_sbss                                             Application/TrueSTUDIO/startup_stm32f765xx.o
_sdata                                            Application/TrueSTUDIO/startup_stm32f765xx.o
_sidata                                           Application/TrueSTUDIO/startup_stm32f765xx.o
a_dfsdm1ChannelHandle                             Drivers/STM32F7xx_HAL_Driver/stm32f7xx_hal_dfsdm.o
buzzerMutexHandle                                 Application/User/freertos.o
                                                  Application/User/Idletasks/idletasks.o
buzzerQueueHandle                                 Application/User/freertos.o
                                                  Application/User/Idletasks/idletasks.o
buzzerrythmTaskHandle                             Application/User/freertos.o
buzzertoneTaskHandle                              Application/User/freertos.o
conresQueueHandle                                 Application/User/freertos.o
                                                  Application/User/debug/datatraceDebug.o
                                                  Application/User/Foc/controlFoc.o
controlTaskHandle                                 Application/User/freertos.o
copysign                                          /home/chen/IDEs/TrueStudio/ARMTools/bin/../lib/gcc/arm-atollic-eabi/6.3.1/../../../../arm-atollic-eabi/lib/armv7e-m/fpu/fpv5-d16/libm.a(lib_a-s_copysign.o)
                                                  /home/chen/IDEs/TrueStudio/ARMTools/bin/../lib/gcc/arm-atollic-eabi/6.3.1/../../../../arm-atollic-eabi/lib/armv7e-m/fpu/fpv5-d16/libm.a(lib_a-s_scalbn.o)
cos                                               /home/chen/IDEs/TrueStudio/ARMTools/bin/../lib/gcc/arm-atollic-eabi/6.3.1/../../../../arm-atollic-eabi/lib/armv7e-m/fpu/fpv5-d16/libm.a(lib_a-s_cos.o)
                                                  Application/User/Foc/controlFoc.o
enchallQueueHandle                                Application/User/freertos.o
                                                  Application/User/debug/datatraceDebug.o
                                                  Application/User/ISRs/isrSensors.o
                                                  Application/User/Foc/controlFoc.o
enchallTaskHandle                                 Application/User/freertos.o
enchall_buff                                      Application/User/ISRs/isrSensors.o
                                                  Application/User/SYSINIT/sysinitial.o
fabs                                              /home/chen/IDEs/TrueStudio/ARMTools/bin/../lib/gcc/arm-atollic-eabi/6.3.1/../../../../arm-atollic-eabi/lib/armv7e-m/fpu/fpv5-d16/libm.a(lib_a-s_fabs.o)
                                                  /home/chen/IDEs/TrueStudio/ARMTools/bin/../lib/gcc/arm-atollic-eabi/6.3.1/../../../../arm-atollic-eabi/lib/armv7e-m/fpu/fpv5-d16/libm.a(lib_a-e_rem_pio2.o)
floor                                             /home/chen/IDEs/TrueStudio/ARMTools/bin/../lib/gcc/arm-atollic-eabi/6.3.1/../../../../arm-atollic-eabi/lib/armv7e-m/fpu/fpv5-d16/libm.a(lib_a-s_floor.o)
                                                  /home/chen/IDEs/TrueStudio/ARMTools/bin/../lib/gcc/arm-atollic-eabi/6.3.1/../../../../arm-atollic-eabi/lib/armv7e-m/fpu/fpv5-d16/libm.a(lib_a-k_rem_pio2.o)
g_pfnVectors                                      Application/TrueSTUDIO/startup_stm32f765xx.o
hdfsdm1_channel0                                  Application/User/dfsdm.o
                                                  Application/User/ISRs/isrSensors.o
hdfsdm1_channel3                                  Application/User/dfsdm.o
                                                  Application/User/ISRs/isrSensors.o
hdfsdm1_filter0                                   Application/User/dfsdm.o
                                                  Application/User/SYSINIT/sysinitial.o
                                                  Application/User/ISRs/isrSensors.o
hdfsdm1_filter1                                   Application/User/dfsdm.o
                                                  Application/User/SYSINIT/sysinitial.o
                                                  Application/User/ISRs/isrSensors.o
hdma_dfsdm1_flt0                                  Application/User/dfsdm.o
                                                  Application/User/stm32f7xx_it.o
hdma_dfsdm1_flt1                                  Application/User/dfsdm.o
                                                  Application/User/stm32f7xx_it.o
hdma_uart4_rx                                     Application/User/usart.o
                                                  Application/User/stm32f7xx_it.o
hdma_usart1_rx                                    Application/User/usart.o
                                                  Application/User/stm32f7xx_it.o
hi2c4                                             Application/User/i2c.o
hpcd_USB_OTG_HS                                   Application/User/usb_otg.o
hspi1                                             Application/User/spi.o
htim1                                             Application/User/tim.o
                                                  Application/User/SYSINIT/sysinitial.o
                                                  Application/User/Foc/controlFoc.o
htim2                                             Application/User/tim.o
                                                  Application/User/SYSINIT/sysinitial.o
                                                  Application/User/Idletasks/idletasks.o
htim4                                             Application/User/stm32f7xx_hal_timebase_TIM.o
                                                  Application/User/stm32f7xx_it.o
huart1                                            Application/User/usart.o
                                                  Application/User/debug/datatraceDebug.o
                                                  Application/User/SYSINIT/sysinitial.o
                                                  Application/User/ISRs/isrSensors.o
huart3                                            Application/User/usart.o
huart4                                            Application/User/usart.o
                                                  Application/User/SYSINIT/sysinitial.o
                                                  Application/User/ISRs/isrSensors.o
huart8                                            Application/User/usart.o
iwdgTaskHandle                                    Application/User/freertos.o
ledblueTaskHandle                                 Application/User/freertos.o
ledgreenTaskHandle                                Application/User/freertos.o
main                                              Application/User/main.o
                                                  Application/TrueSTUDIO/startup_stm32f765xx.o
memcpy                                            /home/chen/IDEs/TrueStudio/ARMTools/bin/../lib/gcc/arm-atollic-eabi/6.3.1/../../../../arm-atollic-eabi/lib/armv7e-m/fpu/fpv5-d16/libc_nano.a(lib_a-memcpy-stub.o)
                                                  Middlewares/FreeRTOS/queue.o
memset                                            /home/chen/IDEs/TrueStudio/ARMTools/bin/../lib/gcc/arm-atollic-eabi/6.3.1/../../../../arm-atollic-eabi/lib/armv7e-m/fpu/fpv5-d16/libc_nano.a(lib_a-memset.o)
                                                  Application/User/Idletasks/idletasks.o
order_buff                                        Application/User/ISRs/isrSensors.o
                                                  Application/User/SYSINIT/sysinitial.o
osAbortDelay                                      Middlewares/FreeRTOS/cmsis_os.o
osDelay                                           Middlewares/FreeRTOS/cmsis_os.o
                                                  Application/User/freertos.o
                                                  Application/User/debug/datatraceDebug.o
                                                  Application/User/Idletasks/idletasks.o
                                                  Application/User/Foc/controlFoc.o
osDelayUntil                                      Middlewares/FreeRTOS/cmsis_os.o
osKernelRunning                                   Middlewares/FreeRTOS/cmsis_os.o
osKernelStart                                     Middlewares/FreeRTOS/cmsis_os.o
                                                  Application/User/main.o
osKernelSysTick                                   Middlewares/FreeRTOS/cmsis_os.o
osMailAlloc                                       Middlewares/FreeRTOS/cmsis_os.o
osMailCAlloc                                      Middlewares/FreeRTOS/cmsis_os.o
osMailCreate                                      Middlewares/FreeRTOS/cmsis_os.o
osMailFree                                        Middlewares/FreeRTOS/cmsis_os.o
osMailGet                                         Middlewares/FreeRTOS/cmsis_os.o
osMailPut                                         Middlewares/FreeRTOS/cmsis_os.o
osMessageAvailableSpace                           Middlewares/FreeRTOS/cmsis_os.o
osMessageCreate                                   Middlewares/FreeRTOS/cmsis_os.o
                                                  Application/User/freertos.o
osMessageDelete                                   Middlewares/FreeRTOS/cmsis_os.o
osMessageGet                                      Middlewares/FreeRTOS/cmsis_os.o
osMessagePeek                                     Middlewares/FreeRTOS/cmsis_os.o
osMessagePut                                      Middlewares/FreeRTOS/cmsis_os.o
osMessageWaiting                                  Middlewares/FreeRTOS/cmsis_os.o
osMutexCreate                                     Middlewares/FreeRTOS/cmsis_os.o
                                                  Application/User/freertos.o
osMutexDelete                                     Middlewares/FreeRTOS/cmsis_os.o
osMutexRelease                                    Middlewares/FreeRTOS/cmsis_os.o
osMutexWait                                       Middlewares/FreeRTOS/cmsis_os.o
osPoolAlloc                                       Middlewares/FreeRTOS/cmsis_os.o
osPoolCAlloc                                      Middlewares/FreeRTOS/cmsis_os.o
osPoolCreate                                      Middlewares/FreeRTOS/cmsis_os.o
osPoolFree                                        Middlewares/FreeRTOS/cmsis_os.o
osRecursiveMutexCreate                            Middlewares/FreeRTOS/cmsis_os.o
osRecursiveMutexRelease                           Middlewares/FreeRTOS/cmsis_os.o
osRecursiveMutexWait                              Middlewares/FreeRTOS/cmsis_os.o
osSemaphoreCreate                                 Middlewares/FreeRTOS/cmsis_os.o
osSemaphoreDelete                                 Middlewares/FreeRTOS/cmsis_os.o
osSemaphoreGetCount                               Middlewares/FreeRTOS/cmsis_os.o
osSemaphoreRelease                                Middlewares/FreeRTOS/cmsis_os.o
osSemaphoreWait                                   Middlewares/FreeRTOS/cmsis_os.o
osSignalSet                                       Middlewares/FreeRTOS/cmsis_os.o
osSignalWait                                      Middlewares/FreeRTOS/cmsis_os.o
osSystickHandler                                  Middlewares/FreeRTOS/cmsis_os.o
                                                  Application/User/stm32f7xx_it.o
osThreadCreate                                    Middlewares/FreeRTOS/cmsis_os.o
                                                  Application/User/freertos.o
osThreadGetId                                     Middlewares/FreeRTOS/cmsis_os.o
osThreadGetPriority                               Middlewares/FreeRTOS/cmsis_os.o
osThreadList                                      Middlewares/FreeRTOS/cmsis_os.o
osThreadResume                                    Middlewares/FreeRTOS/cmsis_os.o
osThreadResumeAll                                 Middlewares/FreeRTOS/cmsis_os.o
osThreadSetPriority                               Middlewares/FreeRTOS/cmsis_os.o
osThreadSuspend                                   Middlewares/FreeRTOS/cmsis_os.o
osThreadSuspendAll                                Middlewares/FreeRTOS/cmsis_os.o
osThreadTerminate                                 Middlewares/FreeRTOS/cmsis_os.o
osThreadYield                                     Middlewares/FreeRTOS/cmsis_os.o
osTimerCreate                                     Middlewares/FreeRTOS/cmsis_os.o
osTimerDelete                                     Middlewares/FreeRTOS/cmsis_os.o
osTimerStart                                      Middlewares/FreeRTOS/cmsis_os.o
osTimerStop                                       Middlewares/FreeRTOS/cmsis_os.o
pFlash                                            Drivers/STM32F7xx_HAL_Driver/stm32f7xx_hal_flash.o
                                                  Drivers/STM32F7xx_HAL_Driver/stm32f7xx_hal_flash_ex.o
pcQueueGetName                                    Middlewares/FreeRTOS/queue.o
pcTaskGetName                                     Middlewares/FreeRTOS/tasks.o
pvPortMalloc                                      Middlewares/FreeRTOS/heap_4.o
                                                  Middlewares/FreeRTOS/tasks.o
                                                  Middlewares/FreeRTOS/queue.o
                                                  Middlewares/FreeRTOS/event_groups.o
                                                  Middlewares/FreeRTOS/cmsis_os.o
pvTaskIncrementMutexHeldCount                     Middlewares/FreeRTOS/tasks.o
                                                  Middlewares/FreeRTOS/queue.o
pxCurrentTCB                                      Middlewares/FreeRTOS/tasks.o
                                                  Middlewares/FreeRTOS/port.o
pxPortInitialiseStack                             Middlewares/FreeRTOS/port.o
                                                  Middlewares/FreeRTOS/tasks.o
rythmQueueHandle                                  Application/User/freertos.o
scalbn                                            /home/chen/IDEs/TrueStudio/ARMTools/bin/../lib/gcc/arm-atollic-eabi/6.3.1/../../../../arm-atollic-eabi/lib/armv7e-m/fpu/fpv5-d16/libm.a(lib_a-s_scalbn.o)
                                                  /home/chen/IDEs/TrueStudio/ARMTools/bin/../lib/gcc/arm-atollic-eabi/6.3.1/../../../../arm-atollic-eabi/lib/armv7e-m/fpu/fpv5-d16/libm.a(lib_a-k_rem_pio2.o)
shuntQueueHandle                                  Application/User/freertos.o
                                                  Application/User/ISRs/isrSensors.o
                                                  Application/User/Foc/controlFoc.o
sin                                               /home/chen/IDEs/TrueStudio/ARMTools/bin/../lib/gcc/arm-atollic-eabi/6.3.1/../../../../arm-atollic-eabi/lib/armv7e-m/fpu/fpv5-d16/libm.a(lib_a-s_sin.o)
                                                  Application/User/Foc/controlFoc.o
ulTaskNotifyTake                                  Middlewares/FreeRTOS/tasks.o
uwIncrementState                                  Application/User/stm32f7xx_hal_timebase_TIM.o
uwTick                                            Drivers/STM32F7xx_HAL_Driver/stm32f7xx_hal.o
uxListRemove                                      Middlewares/FreeRTOS/list.o
                                                  Middlewares/FreeRTOS/tasks.o
uxQueueMessagesWaiting                            Middlewares/FreeRTOS/queue.o
                                                  Middlewares/FreeRTOS/cmsis_os.o
uxQueueMessagesWaitingFromISR                     Middlewares/FreeRTOS/queue.o
                                                  Middlewares/FreeRTOS/cmsis_os.o
uxQueueSpacesAvailable                            Middlewares/FreeRTOS/queue.o
                                                  Middlewares/FreeRTOS/cmsis_os.o
uxTaskGetNumberOfTasks                            Middlewares/FreeRTOS/tasks.o
uxTaskPriorityGet                                 Middlewares/FreeRTOS/tasks.o
                                                  Middlewares/FreeRTOS/cmsis_os.o
uxTaskPriorityGetFromISR                          Middlewares/FreeRTOS/tasks.o
                                                  Middlewares/FreeRTOS/cmsis_os.o
uxTaskResetEventItemValue                         Middlewares/FreeRTOS/tasks.o
                                                  Middlewares/FreeRTOS/event_groups.o
vEventGroupClearBitsCallback                      Middlewares/FreeRTOS/event_groups.o
vEventGroupDelete                                 Middlewares/FreeRTOS/event_groups.o
vEventGroupSetBitsCallback                        Middlewares/FreeRTOS/event_groups.o
vListInitialise                                   Middlewares/FreeRTOS/list.o
                                                  Middlewares/FreeRTOS/tasks.o
                                                  Middlewares/FreeRTOS/queue.o
                                                  Middlewares/FreeRTOS/event_groups.o
vListInitialiseItem                               Middlewares/FreeRTOS/list.o
                                                  Middlewares/FreeRTOS/tasks.o
vListInsert                                       Middlewares/FreeRTOS/list.o
                                                  Middlewares/FreeRTOS/tasks.o
vListInsertEnd                                    Middlewares/FreeRTOS/list.o
                                                  Middlewares/FreeRTOS/tasks.o
vPortEndScheduler                                 Middlewares/FreeRTOS/port.o
                                                  Middlewares/FreeRTOS/tasks.o
vPortEnterCritical                                Middlewares/FreeRTOS/port.o
                                                  Middlewares/FreeRTOS/tasks.o
                                                  Middlewares/FreeRTOS/queue.o
                                                  Middlewares/FreeRTOS/event_groups.o
                                                  Middlewares/FreeRTOS/cmsis_os.o
vPortExitCritical                                 Middlewares/FreeRTOS/port.o
                                                  Middlewares/FreeRTOS/tasks.o
                                                  Middlewares/FreeRTOS/queue.o
                                                  Middlewares/FreeRTOS/event_groups.o
                                                  Middlewares/FreeRTOS/cmsis_os.o
vPortFree                                         Middlewares/FreeRTOS/heap_4.o
                                                  Middlewares/FreeRTOS/tasks.o
                                                  Middlewares/FreeRTOS/queue.o
                                                  Middlewares/FreeRTOS/event_groups.o
                                                  Middlewares/FreeRTOS/cmsis_os.o
vPortInitialiseBlocks                             Middlewares/FreeRTOS/heap_4.o
vPortSetupTimerInterrupt                          Middlewares/FreeRTOS/port.o
vPortValidateInterruptPriority                    Middlewares/FreeRTOS/port.o
                                                  Middlewares/FreeRTOS/tasks.o
                                                  Middlewares/FreeRTOS/queue.o
vQueueAddToRegistry                               Middlewares/FreeRTOS/queue.o
vQueueDelete                                      Middlewares/FreeRTOS/queue.o
                                                  Middlewares/FreeRTOS/cmsis_os.o
vQueueUnregisterQueue                             Middlewares/FreeRTOS/queue.o
vTaskDelay                                        Middlewares/FreeRTOS/tasks.o
                                                  Middlewares/FreeRTOS/cmsis_os.o
vTaskDelete                                       Middlewares/FreeRTOS/tasks.o
                                                  Middlewares/FreeRTOS/cmsis_os.o
vTaskEndScheduler                                 Middlewares/FreeRTOS/tasks.o
vTaskMissedYield                                  Middlewares/FreeRTOS/tasks.o
                                                  Middlewares/FreeRTOS/queue.o
vTaskNotifyGiveFromISR                            Middlewares/FreeRTOS/tasks.o
vTaskPlaceOnEventList                             Middlewares/FreeRTOS/tasks.o
                                                  Middlewares/FreeRTOS/queue.o
vTaskPlaceOnUnorderedEventList                    Middlewares/FreeRTOS/tasks.o
                                                  Middlewares/FreeRTOS/event_groups.o
vTaskPriorityInherit                              Middlewares/FreeRTOS/tasks.o
                                                  Middlewares/FreeRTOS/queue.o
vTaskPrioritySet                                  Middlewares/FreeRTOS/tasks.o
                                                  Middlewares/FreeRTOS/cmsis_os.o
vTaskResume                                       Middlewares/FreeRTOS/tasks.o
                                                  Middlewares/FreeRTOS/cmsis_os.o
vTaskSetTimeOutState                              Middlewares/FreeRTOS/tasks.o
                                                  Middlewares/FreeRTOS/queue.o
vTaskStartScheduler                               Middlewares/FreeRTOS/tasks.o
                                                  Middlewares/FreeRTOS/cmsis_os.o
vTaskSuspend                                      Middlewares/FreeRTOS/tasks.o
                                                  Middlewares/FreeRTOS/cmsis_os.o
vTaskSuspendAll                                   Middlewares/FreeRTOS/tasks.o
                                                  Middlewares/FreeRTOS/queue.o
                                                  Middlewares/FreeRTOS/heap_4.o
                                                  Middlewares/FreeRTOS/event_groups.o
                                                  Middlewares/FreeRTOS/cmsis_os.o
vTaskSwitchContext                                Middlewares/FreeRTOS/tasks.o
                                                  Middlewares/FreeRTOS/port.o
v_dfsdm1ChannelCounter                            Drivers/STM32F7xx_HAL_Driver/stm32f7xx_hal_dfsdm.o
xEventGroupClearBits                              Middlewares/FreeRTOS/event_groups.o
xEventGroupCreate                                 Middlewares/FreeRTOS/event_groups.o
xEventGroupGetBitsFromISR                         Middlewares/FreeRTOS/event_groups.o
xEventGroupSetBits                                Middlewares/FreeRTOS/event_groups.o
xEventGroupSync                                   Middlewares/FreeRTOS/event_groups.o
xEventGroupWaitBits                               Middlewares/FreeRTOS/event_groups.o
xPortGetFreeHeapSize                              Middlewares/FreeRTOS/heap_4.o
xPortGetMinimumEverFreeHeapSize                   Middlewares/FreeRTOS/heap_4.o
xPortStartScheduler                               Middlewares/FreeRTOS/port.o
                                                  Middlewares/FreeRTOS/tasks.o
xPortSysTickHandler                               Middlewares/FreeRTOS/port.o
                                                  Middlewares/FreeRTOS/cmsis_os.o
xQueueCreateMutex                                 Middlewares/FreeRTOS/queue.o
                                                  Middlewares/FreeRTOS/cmsis_os.o
xQueueGenericCreate                               Middlewares/FreeRTOS/queue.o
                                                  Middlewares/FreeRTOS/cmsis_os.o
xQueueGenericReceive                              Middlewares/FreeRTOS/queue.o
                                                  Middlewares/FreeRTOS/cmsis_os.o
                                                  Application/User/debug/datatraceDebug.o
                                                  Application/User/Idletasks/idletasks.o
                                                  Application/User/Foc/controlFoc.o
xQueueGenericReset                                Middlewares/FreeRTOS/queue.o
xQueueGenericSend                                 Middlewares/FreeRTOS/queue.o
                                                  Middlewares/FreeRTOS/cmsis_os.o
                                                  Application/User/Idletasks/idletasks.o
                                                  Application/User/Foc/controlFoc.o
xQueueGenericSendFromISR                          Middlewares/FreeRTOS/queue.o
                                                  Middlewares/FreeRTOS/cmsis_os.o
                                                  Application/User/ISRs/isrSensors.o
xQueueGiveFromISR                                 Middlewares/FreeRTOS/queue.o
                                                  Middlewares/FreeRTOS/cmsis_os.o
xQueueIsQueueEmptyFromISR                         Middlewares/FreeRTOS/queue.o
xQueueIsQueueFullFromISR                          Middlewares/FreeRTOS/queue.o
xQueuePeekFromISR                                 Middlewares/FreeRTOS/queue.o
xQueueReceiveFromISR                              Middlewares/FreeRTOS/queue.o
                                                  Middlewares/FreeRTOS/cmsis_os.o
xQueueRegistry                                    Middlewares/FreeRTOS/queue.o
xTaskCheckForTimeOut                              Middlewares/FreeRTOS/tasks.o
                                                  Middlewares/FreeRTOS/queue.o
xTaskCreate                                       Middlewares/FreeRTOS/tasks.o
                                                  Middlewares/FreeRTOS/cmsis_os.o
xTaskGenericNotify                                Middlewares/FreeRTOS/tasks.o
                                                  Middlewares/FreeRTOS/cmsis_os.o
xTaskGenericNotifyFromISR                         Middlewares/FreeRTOS/tasks.o
                                                  Middlewares/FreeRTOS/cmsis_os.o
xTaskGetCurrentTaskHandle                         Middlewares/FreeRTOS/tasks.o
                                                  Middlewares/FreeRTOS/cmsis_os.o
xTaskGetSchedulerState                            Middlewares/FreeRTOS/tasks.o
                                                  Middlewares/FreeRTOS/queue.o
                                                  Middlewares/FreeRTOS/event_groups.o
                                                  Middlewares/FreeRTOS/cmsis_os.o
xTaskGetTickCount                                 Middlewares/FreeRTOS/tasks.o
                                                  Middlewares/FreeRTOS/cmsis_os.o
xTaskGetTickCountFromISR                          Middlewares/FreeRTOS/tasks.o
                                                  Middlewares/FreeRTOS/cmsis_os.o
xTaskIncrementTick                                Middlewares/FreeRTOS/tasks.o
                                                  Middlewares/FreeRTOS/port.o
xTaskNotifyStateClear                             Middlewares/FreeRTOS/tasks.o
xTaskNotifyWait                                   Middlewares/FreeRTOS/tasks.o
                                                  Middlewares/FreeRTOS/cmsis_os.o
xTaskPriorityDisinherit                           Middlewares/FreeRTOS/tasks.o
                                                  Middlewares/FreeRTOS/queue.o
xTaskRemoveFromEventList                          Middlewares/FreeRTOS/tasks.o
                                                  Middlewares/FreeRTOS/queue.o
xTaskRemoveFromUnorderedEventList                 Middlewares/FreeRTOS/tasks.o
                                                  Middlewares/FreeRTOS/event_groups.o
xTaskResumeAll                                    Middlewares/FreeRTOS/tasks.o
                                                  Middlewares/FreeRTOS/queue.o
                                                  Middlewares/FreeRTOS/heap_4.o
                                                  Middlewares/FreeRTOS/event_groups.o
                                                  Middlewares/FreeRTOS/cmsis_os.o
xTaskResumeFromISR                                Middlewares/FreeRTOS/tasks.o
                                                  Middlewares/FreeRTOS/cmsis_os.o
